Archive member included to satisfy reference by file (symbol)

c:/program files (x86)/atollic/truestudio for arm 7.0.0/armtools/bin/../lib/gcc/arm-atollic-eabi/5.3.1/../../../../arm-atollic-eabi/lib/armv7-m\libc_nano.a(lib_a-init.o)
                              src\startup_stm32f10x_md.o (__libc_init_array)
c:/program files (x86)/atollic/truestudio for arm 7.0.0/armtools/bin/../lib/gcc/arm-atollic-eabi/5.3.1/../../../../arm-atollic-eabi/lib/armv7-m\libc_nano.a(lib_a-malloc.o)
                              BSP\BUTTON\src\tm_stm32_button.o (malloc)
c:/program files (x86)/atollic/truestudio for arm 7.0.0/armtools/bin/../lib/gcc/arm-atollic-eabi/5.3.1/../../../../arm-atollic-eabi/lib/armv7-m\libc_nano.a(lib_a-memcpy-stub.o)
                              BSP\MODBUS\modbus\functions\mbfuncother.o (memcpy)
c:/program files (x86)/atollic/truestudio for arm 7.0.0/armtools/bin/../lib/gcc/arm-atollic-eabi/5.3.1/../../../../arm-atollic-eabi/lib/armv7-m\libc_nano.a(lib_a-memset.o)
                              BSP\AM2302\src\ADCT_DHT22.o (memset)
c:/program files (x86)/atollic/truestudio for arm 7.0.0/armtools/bin/../lib/gcc/arm-atollic-eabi/5.3.1/../../../../arm-atollic-eabi/lib/armv7-m\libc_nano.a(lib_a-nano-freer.o)
                              c:/program files (x86)/atollic/truestudio for arm 7.0.0/armtools/bin/../lib/gcc/arm-atollic-eabi/5.3.1/../../../../arm-atollic-eabi/lib/armv7-m\libc_nano.a(lib_a-malloc.o) (_free_r)
c:/program files (x86)/atollic/truestudio for arm 7.0.0/armtools/bin/../lib/gcc/arm-atollic-eabi/5.3.1/../../../../arm-atollic-eabi/lib/armv7-m\libc_nano.a(lib_a-nano-mallocr.o)
                              c:/program files (x86)/atollic/truestudio for arm 7.0.0/armtools/bin/../lib/gcc/arm-atollic-eabi/5.3.1/../../../../arm-atollic-eabi/lib/armv7-m\libc_nano.a(lib_a-malloc.o) (_malloc_r)
c:/program files (x86)/atollic/truestudio for arm 7.0.0/armtools/bin/../lib/gcc/arm-atollic-eabi/5.3.1/../../../../arm-atollic-eabi/lib/armv7-m\libc_nano.a(lib_a-printf.o)
                              BSP\PZEM004T\src\fifo.o (printf)
c:/program files (x86)/atollic/truestudio for arm 7.0.0/armtools/bin/../lib/gcc/arm-atollic-eabi/5.3.1/../../../../arm-atollic-eabi/lib/armv7-m\libc_nano.a(lib_a-sbrkr.o)
                              c:/program files (x86)/atollic/truestudio for arm 7.0.0/armtools/bin/../lib/gcc/arm-atollic-eabi/5.3.1/../../../../arm-atollic-eabi/lib/armv7-m\libc_nano.a(lib_a-nano-mallocr.o) (_sbrk_r)
c:/program files (x86)/atollic/truestudio for arm 7.0.0/armtools/bin/../lib/gcc/arm-atollic-eabi/5.3.1/../../../../arm-atollic-eabi/lib/armv7-m\libc_nano.a(lib_a-strlen.o)
                              BSP\PZEM004T\src\PZEM004T.o (strlen)
c:/program files (x86)/atollic/truestudio for arm 7.0.0/armtools/bin/../lib/gcc/arm-atollic-eabi/5.3.1/../../../../arm-atollic-eabi/lib/armv7-m\libc_nano.a(lib_a-findfp.o)
                              c:/program files (x86)/atollic/truestudio for arm 7.0.0/armtools/bin/../lib/gcc/arm-atollic-eabi/5.3.1/../../../../arm-atollic-eabi/lib/armv7-m\libc_nano.a(lib_a-printf.o) (__sinit)
c:/program files (x86)/atollic/truestudio for arm 7.0.0/armtools/bin/../lib/gcc/arm-atollic-eabi/5.3.1/../../../../arm-atollic-eabi/lib/armv7-m\libc_nano.a(lib_a-fwalk.o)
                              c:/program files (x86)/atollic/truestudio for arm 7.0.0/armtools/bin/../lib/gcc/arm-atollic-eabi/5.3.1/../../../../arm-atollic-eabi/lib/armv7-m\libc_nano.a(lib_a-findfp.o) (_fwalk)
c:/program files (x86)/atollic/truestudio for arm 7.0.0/armtools/bin/../lib/gcc/arm-atollic-eabi/5.3.1/../../../../arm-atollic-eabi/lib/armv7-m\libc_nano.a(lib_a-impure.o)
                              c:/program files (x86)/atollic/truestudio for arm 7.0.0/armtools/bin/../lib/gcc/arm-atollic-eabi/5.3.1/../../../../arm-atollic-eabi/lib/armv7-m\libc_nano.a(lib_a-findfp.o) (_global_impure_ptr)
c:/program files (x86)/atollic/truestudio for arm 7.0.0/armtools/bin/../lib/gcc/arm-atollic-eabi/5.3.1/../../../../arm-atollic-eabi/lib/armv7-m\libc_nano.a(lib_a-mlock.o)
                              c:/program files (x86)/atollic/truestudio for arm 7.0.0/armtools/bin/../lib/gcc/arm-atollic-eabi/5.3.1/../../../../arm-atollic-eabi/lib/armv7-m\libc_nano.a(lib_a-nano-freer.o) (__malloc_lock)
c:/program files (x86)/atollic/truestudio for arm 7.0.0/armtools/bin/../lib/gcc/arm-atollic-eabi/5.3.1/../../../../arm-atollic-eabi/lib/armv7-m\libc_nano.a(lib_a-nano-vfprintf.o)
                              c:/program files (x86)/atollic/truestudio for arm 7.0.0/armtools/bin/../lib/gcc/arm-atollic-eabi/5.3.1/../../../../arm-atollic-eabi/lib/armv7-m\libc_nano.a(lib_a-printf.o) (_vfprintf_r)
c:/program files (x86)/atollic/truestudio for arm 7.0.0/armtools/bin/../lib/gcc/arm-atollic-eabi/5.3.1/../../../../arm-atollic-eabi/lib/armv7-m\libc_nano.a(lib_a-nano-vfprintf_i.o)
                              c:/program files (x86)/atollic/truestudio for arm 7.0.0/armtools/bin/../lib/gcc/arm-atollic-eabi/5.3.1/../../../../arm-atollic-eabi/lib/armv7-m\libc_nano.a(lib_a-nano-vfprintf.o) (_printf_i)
c:/program files (x86)/atollic/truestudio for arm 7.0.0/armtools/bin/../lib/gcc/arm-atollic-eabi/5.3.1/../../../../arm-atollic-eabi/lib/armv7-m\libc_nano.a(lib_a-reent.o)
                              c:/program files (x86)/atollic/truestudio for arm 7.0.0/armtools/bin/../lib/gcc/arm-atollic-eabi/5.3.1/../../../../arm-atollic-eabi/lib/armv7-m\libc_nano.a(lib_a-sbrkr.o) (errno)
c:/program files (x86)/atollic/truestudio for arm 7.0.0/armtools/bin/../lib/gcc/arm-atollic-eabi/5.3.1/../../../../arm-atollic-eabi/lib/armv7-m\libc_nano.a(lib_a-stdio.o)
                              c:/program files (x86)/atollic/truestudio for arm 7.0.0/armtools/bin/../lib/gcc/arm-atollic-eabi/5.3.1/../../../../arm-atollic-eabi/lib/armv7-m\libc_nano.a(lib_a-findfp.o) (__sread)
c:/program files (x86)/atollic/truestudio for arm 7.0.0/armtools/bin/../lib/gcc/arm-atollic-eabi/5.3.1/../../../../arm-atollic-eabi/lib/armv7-m\libc_nano.a(lib_a-wbuf.o)
                              c:/program files (x86)/atollic/truestudio for arm 7.0.0/armtools/bin/../lib/gcc/arm-atollic-eabi/5.3.1/../../../../arm-atollic-eabi/lib/armv7-m\libc_nano.a(lib_a-nano-vfprintf.o) (__swbuf_r)
c:/program files (x86)/atollic/truestudio for arm 7.0.0/armtools/bin/../lib/gcc/arm-atollic-eabi/5.3.1/../../../../arm-atollic-eabi/lib/armv7-m\libc_nano.a(lib_a-writer.o)
                              c:/program files (x86)/atollic/truestudio for arm 7.0.0/armtools/bin/../lib/gcc/arm-atollic-eabi/5.3.1/../../../../arm-atollic-eabi/lib/armv7-m\libc_nano.a(lib_a-stdio.o) (_write_r)
c:/program files (x86)/atollic/truestudio for arm 7.0.0/armtools/bin/../lib/gcc/arm-atollic-eabi/5.3.1/../../../../arm-atollic-eabi/lib/armv7-m\libc_nano.a(lib_a-wsetup.o)
                              c:/program files (x86)/atollic/truestudio for arm 7.0.0/armtools/bin/../lib/gcc/arm-atollic-eabi/5.3.1/../../../../arm-atollic-eabi/lib/armv7-m\libc_nano.a(lib_a-nano-vfprintf.o) (__swsetup_r)
c:/program files (x86)/atollic/truestudio for arm 7.0.0/armtools/bin/../lib/gcc/arm-atollic-eabi/5.3.1/../../../../arm-atollic-eabi/lib/armv7-m\libc_nano.a(lib_a-closer.o)
                              c:/program files (x86)/atollic/truestudio for arm 7.0.0/armtools/bin/../lib/gcc/arm-atollic-eabi/5.3.1/../../../../arm-atollic-eabi/lib/armv7-m\libc_nano.a(lib_a-stdio.o) (_close_r)
c:/program files (x86)/atollic/truestudio for arm 7.0.0/armtools/bin/../lib/gcc/arm-atollic-eabi/5.3.1/../../../../arm-atollic-eabi/lib/armv7-m\libc_nano.a(lib_a-fflush.o)
                              c:/program files (x86)/atollic/truestudio for arm 7.0.0/armtools/bin/../lib/gcc/arm-atollic-eabi/5.3.1/../../../../arm-atollic-eabi/lib/armv7-m\libc_nano.a(lib_a-findfp.o) (_fflush_r)
c:/program files (x86)/atollic/truestudio for arm 7.0.0/armtools/bin/../lib/gcc/arm-atollic-eabi/5.3.1/../../../../arm-atollic-eabi/lib/armv7-m\libc_nano.a(lib_a-fvwrite.o)
                              c:/program files (x86)/atollic/truestudio for arm 7.0.0/armtools/bin/../lib/gcc/arm-atollic-eabi/5.3.1/../../../../arm-atollic-eabi/lib/armv7-m\libc_nano.a(lib_a-nano-vfprintf.o) (__sfvwrite_r)
c:/program files (x86)/atollic/truestudio for arm 7.0.0/armtools/bin/../lib/gcc/arm-atollic-eabi/5.3.1/../../../../arm-atollic-eabi/lib/armv7-m\libc_nano.a(lib_a-lseekr.o)
                              c:/program files (x86)/atollic/truestudio for arm 7.0.0/armtools/bin/../lib/gcc/arm-atollic-eabi/5.3.1/../../../../arm-atollic-eabi/lib/armv7-m\libc_nano.a(lib_a-stdio.o) (_lseek_r)
c:/program files (x86)/atollic/truestudio for arm 7.0.0/armtools/bin/../lib/gcc/arm-atollic-eabi/5.3.1/../../../../arm-atollic-eabi/lib/armv7-m\libc_nano.a(lib_a-makebuf.o)
                              c:/program files (x86)/atollic/truestudio for arm 7.0.0/armtools/bin/../lib/gcc/arm-atollic-eabi/5.3.1/../../../../arm-atollic-eabi/lib/armv7-m\libc_nano.a(lib_a-wsetup.o) (__smakebuf_r)
c:/program files (x86)/atollic/truestudio for arm 7.0.0/armtools/bin/../lib/gcc/arm-atollic-eabi/5.3.1/../../../../arm-atollic-eabi/lib/armv7-m\libc_nano.a(lib_a-memchr-stub.o)
                              c:/program files (x86)/atollic/truestudio for arm 7.0.0/armtools/bin/../lib/gcc/arm-atollic-eabi/5.3.1/../../../../arm-atollic-eabi/lib/armv7-m\libc_nano.a(lib_a-nano-vfprintf.o) (memchr)
c:/program files (x86)/atollic/truestudio for arm 7.0.0/armtools/bin/../lib/gcc/arm-atollic-eabi/5.3.1/../../../../arm-atollic-eabi/lib/armv7-m\libc_nano.a(lib_a-memmove.o)
                              c:/program files (x86)/atollic/truestudio for arm 7.0.0/armtools/bin/../lib/gcc/arm-atollic-eabi/5.3.1/../../../../arm-atollic-eabi/lib/armv7-m\libc_nano.a(lib_a-fvwrite.o) (memmove)
c:/program files (x86)/atollic/truestudio for arm 7.0.0/armtools/bin/../lib/gcc/arm-atollic-eabi/5.3.1/../../../../arm-atollic-eabi/lib/armv7-m\libc_nano.a(lib_a-nano-reallocr.o)
                              c:/program files (x86)/atollic/truestudio for arm 7.0.0/armtools/bin/../lib/gcc/arm-atollic-eabi/5.3.1/../../../../arm-atollic-eabi/lib/armv7-m\libc_nano.a(lib_a-fvwrite.o) (_realloc_r)
c:/program files (x86)/atollic/truestudio for arm 7.0.0/armtools/bin/../lib/gcc/arm-atollic-eabi/5.3.1/../../../../arm-atollic-eabi/lib/armv7-m\libc_nano.a(lib_a-readr.o)
                              c:/program files (x86)/atollic/truestudio for arm 7.0.0/armtools/bin/../lib/gcc/arm-atollic-eabi/5.3.1/../../../../arm-atollic-eabi/lib/armv7-m\libc_nano.a(lib_a-stdio.o) (_read_r)
c:/program files (x86)/atollic/truestudio for arm 7.0.0/armtools/bin/../lib/gcc/arm-atollic-eabi/5.3.1/../../../../arm-atollic-eabi/lib/armv7-m\libc_nano.a(lib_a-fstatr.o)
                              c:/program files (x86)/atollic/truestudio for arm 7.0.0/armtools/bin/../lib/gcc/arm-atollic-eabi/5.3.1/../../../../arm-atollic-eabi/lib/armv7-m\libc_nano.a(lib_a-makebuf.o) (_fstat_r)
c:/program files (x86)/atollic/truestudio for arm 7.0.0/armtools/bin/../lib/gcc/arm-atollic-eabi/5.3.1/../../../../arm-atollic-eabi/lib/armv7-m\libc_nano.a(lib_a-isattyr.o)
                              c:/program files (x86)/atollic/truestudio for arm 7.0.0/armtools/bin/../lib/gcc/arm-atollic-eabi/5.3.1/../../../../arm-atollic-eabi/lib/armv7-m\libc_nano.a(lib_a-makebuf.o) (_isatty_r)
c:/program files (x86)/atollic/truestudio for arm 7.0.0/armtools/bin/../lib/gcc/arm-atollic-eabi/5.3.1/../../../../arm-atollic-eabi/lib/armv7-m\libc_nano.a(lib_a-nano-msizer.o)
                              c:/program files (x86)/atollic/truestudio for arm 7.0.0/armtools/bin/../lib/gcc/arm-atollic-eabi/5.3.1/../../../../arm-atollic-eabi/lib/armv7-m\libc_nano.a(lib_a-nano-reallocr.o) (_malloc_usable_size_r)
c:/program files (x86)/atollic/truestudio for arm 7.0.0/armtools/bin/../lib/gcc/arm-atollic-eabi/5.3.1/armv7-m\libgcc.a(_arm_addsubdf3.o)
                              BSP\PZEM004T\src\PZEM004T.o (__aeabi_dadd)
c:/program files (x86)/atollic/truestudio for arm 7.0.0/armtools/bin/../lib/gcc/arm-atollic-eabi/5.3.1/armv7-m\libgcc.a(_arm_muldivdf3.o)
                              Apps\src\ADCT_BGS_Modbus.o (__aeabi_dmul)
c:/program files (x86)/atollic/truestudio for arm 7.0.0/armtools/bin/../lib/gcc/arm-atollic-eabi/5.3.1/armv7-m\libgcc.a(_arm_fixunsdfsi.o)
                              Apps\src\ADCT_BGS_Modbus.o (__aeabi_d2uiz)
c:/program files (x86)/atollic/truestudio for arm 7.0.0/armtools/bin/../lib/gcc/arm-atollic-eabi/5.3.1/armv7-m\libgcc.a(_arm_truncdfsf2.o)
                              BSP\PZEM004T\src\PZEM004T.o (__aeabi_d2f)
c:/program files (x86)/atollic/truestudio for arm 7.0.0/armtools/bin/../lib/gcc/arm-atollic-eabi/5.3.1/armv7-m\libgcc.a(_arm_addsubsf3.o)
                              BSP\PZEM004T\src\PZEM004T.o (__aeabi_fsub)
c:/program files (x86)/atollic/truestudio for arm 7.0.0/armtools/bin/../lib/gcc/arm-atollic-eabi/5.3.1/armv7-m\libgcc.a(_arm_muldivsf3.o)
                              BSP\PZEM004T\src\PZEM004T.o (__aeabi_fmul)
c:/program files (x86)/atollic/truestudio for arm 7.0.0/armtools/bin/../lib/gcc/arm-atollic-eabi/5.3.1/armv7-m\libgcc.a(_arm_fixsfsi.o)
                              BSP\PZEM004T\src\PZEM004T.o (__aeabi_f2iz)
c:/program files (x86)/atollic/truestudio for arm 7.0.0/armtools/bin/../lib/gcc/arm-atollic-eabi/5.3.1/armv7-m\libgcc.a(_arm_fixunssfsi.o)
                              Apps\src\ADCT_BGS_Modbus.o (__aeabi_f2uiz)
c:/program files (x86)/atollic/truestudio for arm 7.0.0/armtools/bin/../lib/gcc/arm-atollic-eabi/5.3.1/../../../../arm-atollic-eabi/lib/armv7-m\libnosys.a(close.o)
                              c:/program files (x86)/atollic/truestudio for arm 7.0.0/armtools/bin/../lib/gcc/arm-atollic-eabi/5.3.1/../../../../arm-atollic-eabi/lib/armv7-m\libc_nano.a(lib_a-closer.o) (_close)
c:/program files (x86)/atollic/truestudio for arm 7.0.0/armtools/bin/../lib/gcc/arm-atollic-eabi/5.3.1/../../../../arm-atollic-eabi/lib/armv7-m\libnosys.a(fstat.o)
                              c:/program files (x86)/atollic/truestudio for arm 7.0.0/armtools/bin/../lib/gcc/arm-atollic-eabi/5.3.1/../../../../arm-atollic-eabi/lib/armv7-m\libc_nano.a(lib_a-fstatr.o) (_fstat)
c:/program files (x86)/atollic/truestudio for arm 7.0.0/armtools/bin/../lib/gcc/arm-atollic-eabi/5.3.1/../../../../arm-atollic-eabi/lib/armv7-m\libnosys.a(isatty.o)
                              c:/program files (x86)/atollic/truestudio for arm 7.0.0/armtools/bin/../lib/gcc/arm-atollic-eabi/5.3.1/../../../../arm-atollic-eabi/lib/armv7-m\libc_nano.a(lib_a-isattyr.o) (_isatty)
c:/program files (x86)/atollic/truestudio for arm 7.0.0/armtools/bin/../lib/gcc/arm-atollic-eabi/5.3.1/../../../../arm-atollic-eabi/lib/armv7-m\libnosys.a(lseek.o)
                              c:/program files (x86)/atollic/truestudio for arm 7.0.0/armtools/bin/../lib/gcc/arm-atollic-eabi/5.3.1/../../../../arm-atollic-eabi/lib/armv7-m\libc_nano.a(lib_a-lseekr.o) (_lseek)
c:/program files (x86)/atollic/truestudio for arm 7.0.0/armtools/bin/../lib/gcc/arm-atollic-eabi/5.3.1/../../../../arm-atollic-eabi/lib/armv7-m\libnosys.a(read.o)
                              c:/program files (x86)/atollic/truestudio for arm 7.0.0/armtools/bin/../lib/gcc/arm-atollic-eabi/5.3.1/../../../../arm-atollic-eabi/lib/armv7-m\libc_nano.a(lib_a-readr.o) (_read)
c:/program files (x86)/atollic/truestudio for arm 7.0.0/armtools/bin/../lib/gcc/arm-atollic-eabi/5.3.1/../../../../arm-atollic-eabi/lib/armv7-m\libnosys.a(sbrk.o)
                              c:/program files (x86)/atollic/truestudio for arm 7.0.0/armtools/bin/../lib/gcc/arm-atollic-eabi/5.3.1/../../../../arm-atollic-eabi/lib/armv7-m\libc_nano.a(lib_a-sbrkr.o) (_sbrk)
c:/program files (x86)/atollic/truestudio for arm 7.0.0/armtools/bin/../lib/gcc/arm-atollic-eabi/5.3.1/../../../../arm-atollic-eabi/lib/armv7-m\libnosys.a(write.o)
                              c:/program files (x86)/atollic/truestudio for arm 7.0.0/armtools/bin/../lib/gcc/arm-atollic-eabi/5.3.1/../../../../arm-atollic-eabi/lib/armv7-m\libc_nano.a(lib_a-writer.o) (_write)

Allocating common symbols
Common symbol       size              file

count_ac            0x1               Apps\src\ADCT_BGS_State.o
pxMBFrameCBTransmitterEmpty
                    0x4               BSP\MODBUS\modbus\mb.o
GstSystemSetting    0x40              Apps\src\ADCT_BGS_System.o
s_DateStructVar     0x4               BSP\RTC\src\ADCT_RTC.o
s_TimeStructVar     0x6               BSP\RTC\src\ADCT_RTC.o
ADCT_BGS_Date_Time_Setting
                    0x8               src\main.o
EEPROMDataWritePointer
                    0x4               BSP\AT24C64\src\ADCT_AT24C64.o
TestTimer           0x4               src\main.o
pxMBPortCBTimerExpired
                    0x4               BSP\MODBUS\modbus\mb.o
StartTime           0x4               src\main.o
errno               0x4               c:/program files (x86)/atollic/truestudio for arm 7.0.0/armtools/bin/../lib/gcc/arm-atollic-eabi/5.3.1/../../../../arm-atollic-eabi/lib/armv7-m\libc_nano.a(lib_a-reent.o)
temp_setting        0x2               Apps\src\ADCT_BGS_Modbus.o
EEPROMDataReadPointer
                    0x4               BSP\AT24C64\src\ADCT_AT24C64.o
_address            0x4               Apps\src\ADCT_BGS_Modbus.o
SummerTimeCorrect   0x2               BSP\RTC\src\ADCT_RTC.o
TempStateTimer      0x4               Apps\src\ADCT_BGS_System.o
avgValue            0x4               BSP\PhSensor\src\ADCT_PhSensor.o
count_dht22         0x1               Apps\src\ADCT_BGS_State.o
g_ADCT_BGS_TimerManager
                    0x15              Apps\src\ADCT_BGS_State.o
temp                0x4               BSP\PhSensor\src\ADCT_PhSensor.o
ucRTUBuf            0x100             BSP\MODBUS\modbus\rtu\mbrtu.o
g_ASW_Task_flag     0x4               ASW_Task\src\ADCT_BGS_BSW_Task.o
AC_DataBuf          0x24              BSP\PZEM004T\src\PZEM004T.o
g_ADCT_BGS_Current_RTC
                    0x8               Apps\src\ADCT_BGS_State.o
idx_u8              0x1               BSP\PhSensor\src\ADCT_PhSensor.o
CancelButton        0x4               BSP\BUTTON\src\ADCT_BGS_BUTTON.o
g_ADCT_BGS_StateOutput
                    0xd               Apps\src\ADCT_BGS_State.o
pxMBFrameCBByteReceived
                    0x4               BSP\MODBUS\modbus\mb.o
UpButton            0x4               BSP\BUTTON\src\ADCT_BGS_BUTTON.o
pxMBFrameCBTransmitFSMCur
                    0x4               BSP\MODBUS\modbus\mb.o
ADCT_BGS_REBOOT_BOARD
                    0x1               Apps\src\ADCT_BGS_Modbus.o
pxMBFrameCBReceiveFSMCur
                    0x4               BSP\MODBUS\modbus\mb.o
ADCT_PHVal          0x8               src\main.o
SampleData_pu16     0x14              BSP\PhSensor\src\ADCT_PhSensor.o
GstSystemWarning    0x8               Apps\src\ADCT_BGS_System.o
GstSystemStatus     0x44              Apps\src\ADCT_BGS_System.o
EEPROMDMA_InitStructure
                    0x2c              BSP\AT24C64\src\ADCT_AT24C64.o
DownButton          0x4               BSP\BUTTON\src\ADCT_BGS_BUTTON.o
ClockSource         0x1               BSP\RTC\src\ADCT_RTC.o
EnterButton         0x4               BSP\BUTTON\src\ADCT_BGS_BUTTON.o
GTempSetting        0x40              Apps\src\ADCT_BGS_Modbus.o
EEPROMDataNum       0x1               BSP\AT24C64\src\ADCT_AT24C64.o

Discarded input sections

 .text          0x00000000        0x0 c:/program files (x86)/atollic/truestudio for arm 7.0.0/armtools/bin/../lib/gcc/arm-atollic-eabi/5.3.1/armv7-m/crti.o
 .data          0x00000000        0x0 c:/program files (x86)/atollic/truestudio for arm 7.0.0/armtools/bin/../lib/gcc/arm-atollic-eabi/5.3.1/armv7-m/crti.o
 .bss           0x00000000        0x0 c:/program files (x86)/atollic/truestudio for arm 7.0.0/armtools/bin/../lib/gcc/arm-atollic-eabi/5.3.1/armv7-m/crti.o
 .data          0x00000000        0x4 c:/program files (x86)/atollic/truestudio for arm 7.0.0/armtools/bin/../lib/gcc/arm-atollic-eabi/5.3.1/armv7-m/crtbegin.o
 .text          0x00000000        0x0 ASW_Task\src\ADCT_BGS_BSW_Task.o
 .data          0x00000000        0x0 ASW_Task\src\ADCT_BGS_BSW_Task.o
 .bss           0x00000000        0x0 ASW_Task\src\ADCT_BGS_BSW_Task.o
 .text          0x00000000        0x0 Apps\src\ADCT_BGS_Bare_state.o
 .data          0x00000000        0x0 Apps\src\ADCT_BGS_Bare_state.o
 .bss           0x00000000        0x0 Apps\src\ADCT_BGS_Bare_state.o
 .text          0x00000000        0x0 Apps\src\ADCT_BGS_Modbus.o
 .data          0x00000000        0x0 Apps\src\ADCT_BGS_Modbus.o
 .bss           0x00000000        0x0 Apps\src\ADCT_BGS_Modbus.o
 .text.ADCT_SendDebugData
                0x00000000        0xc Apps\src\ADCT_BGS_Modbus.o
 .text          0x00000000        0x0 Apps\src\ADCT_BGS_State.o
 .data          0x00000000        0x0 Apps\src\ADCT_BGS_State.o
 .bss           0x00000000        0x0 Apps\src\ADCT_BGS_State.o
 .text          0x00000000        0x0 Apps\src\ADCT_BGS_System.o
 .data          0x00000000        0x0 Apps\src\ADCT_BGS_System.o
 .bss           0x00000000        0x0 Apps\src\ADCT_BGS_System.o
 .text.ADCT_SYSTEM_FPT_Init
                0x00000000       0x34 Apps\src\ADCT_BGS_System.o
 .text          0x00000000        0x0 BSP\AM2302\src\ADCT_DHT22.o
 .data          0x00000000        0x0 BSP\AM2302\src\ADCT_DHT22.o
 .bss           0x00000000        0x0 BSP\AM2302\src\ADCT_DHT22.o
 .bss.ADCT_BGS_Temp
                0x00000000        0x8 BSP\AM2302\src\ADCT_DHT22.o
 .bss.ADCT_BGS_Hummid
                0x00000000        0x8 BSP\AM2302\src\ADCT_DHT22.o
 .text.ADCT_BGS_DHT22_GetData
                0x00000000       0x70 BSP\AM2302\src\ADCT_DHT22.o
 .text          0x00000000        0x0 BSP\AM2302\src\ADCT_DHT22_exti.o
 .data          0x00000000        0x0 BSP\AM2302\src\ADCT_DHT22_exti.o
 .bss           0x00000000        0x0 BSP\AM2302\src\ADCT_DHT22_exti.o
 .text.vExtiChangeState
                0x00000000       0x34 BSP\AM2302\src\ADCT_DHT22_exti.o
 .text.vExtiStop
                0x00000000        0xc BSP\AM2302\src\ADCT_DHT22_exti.o
 .text          0x00000000        0x0 BSP\AT24C64\src\ADCT_AT24C64.o
 .data          0x00000000        0x0 BSP\AT24C64\src\ADCT_AT24C64.o
 .bss           0x00000000        0x0 BSP\AT24C64\src\ADCT_AT24C64.o
 .text.EEPROM_LowLevel_DeInit
                0x00000000       0xa0 BSP\AT24C64\src\ADCT_AT24C64.o
 .text.EEPROM_DeInit
                0x00000000        0xc BSP\AT24C64\src\ADCT_AT24C64.o
 .text.ADCT_AT24C64_ReadTwoBytes
                0x00000000       0x84 BSP\AT24C64\src\ADCT_AT24C64.o
 .text          0x00000000        0x0 BSP\BUTTON\src\ADCT_BGS_BUTTON.o
 .data          0x00000000        0x0 BSP\BUTTON\src\ADCT_BGS_BUTTON.o
 .bss           0x00000000        0x0 BSP\BUTTON\src\ADCT_BGS_BUTTON.o
 .text          0x00000000        0x0 BSP\BUTTON\src\tm_stm32_button.o
 .data          0x00000000        0x0 BSP\BUTTON\src\tm_stm32_button.o
 .bss           0x00000000        0x0 BSP\BUTTON\src\tm_stm32_button.o
 .text.TM_BUTTON_Update
                0x00000000       0x38 BSP\BUTTON\src\tm_stm32_button.o
 .text.TM_BUTTON_INT_CheckButton
                0x00000000      0x144 BSP\BUTTON\src\tm_stm32_button.o
 .text          0x00000000        0x0 BSP\MODBUS\modbus\ascii\mbascii.o
 .data          0x00000000        0x0 BSP\MODBUS\modbus\ascii\mbascii.o
 .bss           0x00000000        0x0 BSP\MODBUS\modbus\ascii\mbascii.o
 .debug_info    0x00000000       0xa0 BSP\MODBUS\modbus\ascii\mbascii.o
 .debug_abbrev  0x00000000       0x4b BSP\MODBUS\modbus\ascii\mbascii.o
 .debug_aranges
                0x00000000       0x18 BSP\MODBUS\modbus\ascii\mbascii.o
 .debug_line    0x00000000      0x144 BSP\MODBUS\modbus\ascii\mbascii.o
 .debug_str     0x00000000      0x19f BSP\MODBUS\modbus\ascii\mbascii.o
 .comment       0x00000000       0x7f BSP\MODBUS\modbus\ascii\mbascii.o
 .ARM.attributes
                0x00000000       0x33 BSP\MODBUS\modbus\ascii\mbascii.o
 .text          0x00000000        0x0 BSP\MODBUS\modbus\functions\mbfunccoils.o
 .data          0x00000000        0x0 BSP\MODBUS\modbus\functions\mbfunccoils.o
 .bss           0x00000000        0x0 BSP\MODBUS\modbus\functions\mbfunccoils.o
 .text          0x00000000        0x0 BSP\MODBUS\modbus\functions\mbfuncdiag.o
 .data          0x00000000        0x0 BSP\MODBUS\modbus\functions\mbfuncdiag.o
 .bss           0x00000000        0x0 BSP\MODBUS\modbus\functions\mbfuncdiag.o
 .debug_line    0x00000000        0x0 BSP\MODBUS\modbus\functions\mbfuncdiag.o
 .debug_str     0x00000000       0xe9 BSP\MODBUS\modbus\functions\mbfuncdiag.o
 .comment       0x00000000       0x7f BSP\MODBUS\modbus\functions\mbfuncdiag.o
 .ARM.attributes
                0x00000000       0x33 BSP\MODBUS\modbus\functions\mbfuncdiag.o
 .text          0x00000000        0x0 BSP\MODBUS\modbus\functions\mbfuncdisc.o
 .data          0x00000000        0x0 BSP\MODBUS\modbus\functions\mbfuncdisc.o
 .bss           0x00000000        0x0 BSP\MODBUS\modbus\functions\mbfuncdisc.o
 .text          0x00000000        0x0 BSP\MODBUS\modbus\functions\mbfuncholding.o
 .data          0x00000000        0x0 BSP\MODBUS\modbus\functions\mbfuncholding.o
 .bss           0x00000000        0x0 BSP\MODBUS\modbus\functions\mbfuncholding.o
 .text          0x00000000        0x0 BSP\MODBUS\modbus\functions\mbfuncinput.o
 .data          0x00000000        0x0 BSP\MODBUS\modbus\functions\mbfuncinput.o
 .bss           0x00000000        0x0 BSP\MODBUS\modbus\functions\mbfuncinput.o
 .text          0x00000000        0x0 BSP\MODBUS\modbus\functions\mbfuncother.o
 .data          0x00000000        0x0 BSP\MODBUS\modbus\functions\mbfuncother.o
 .bss           0x00000000        0x0 BSP\MODBUS\modbus\functions\mbfuncother.o
 .text.eMBSetSlaveID
                0x00000000       0x9c BSP\MODBUS\modbus\functions\mbfuncother.o
 .text          0x00000000        0x0 BSP\MODBUS\modbus\functions\mbutils.o
 .data          0x00000000        0x0 BSP\MODBUS\modbus\functions\mbutils.o
 .bss           0x00000000        0x0 BSP\MODBUS\modbus\functions\mbutils.o
 .text.xMBUtilSetBits
                0x00000000       0xbc BSP\MODBUS\modbus\functions\mbutils.o
 .text.xMBUtilGetBits
                0x00000000       0x74 BSP\MODBUS\modbus\functions\mbutils.o
 .text          0x00000000        0x0 BSP\MODBUS\modbus\mb.o
 .data          0x00000000        0x0 BSP\MODBUS\modbus\mb.o
 .bss           0x00000000        0x0 BSP\MODBUS\modbus\mb.o
 .text.eMBRegisterCB
                0x00000000       0xd0 BSP\MODBUS\modbus\mb.o
 .text.eMBClose
                0x00000000       0x38 BSP\MODBUS\modbus\mb.o
 .text.eMBDisable
                0x00000000       0x44 BSP\MODBUS\modbus\mb.o
 .text          0x00000000        0x0 BSP\MODBUS\modbus\rtu\mbcrc.o
 .data          0x00000000        0x0 BSP\MODBUS\modbus\rtu\mbcrc.o
 .bss           0x00000000        0x0 BSP\MODBUS\modbus\rtu\mbcrc.o
 .text          0x00000000        0x0 BSP\MODBUS\modbus\rtu\mbrtu.o
 .data          0x00000000        0x0 BSP\MODBUS\modbus\rtu\mbrtu.o
 .bss           0x00000000        0x0 BSP\MODBUS\modbus\rtu\mbrtu.o
 .text          0x00000000        0x0 BSP\MODBUS\modbus\tcp\mbtcp.o
 .data          0x00000000        0x0 BSP\MODBUS\modbus\tcp\mbtcp.o
 .bss           0x00000000        0x0 BSP\MODBUS\modbus\tcp\mbtcp.o
 .debug_info    0x00000000       0xa0 BSP\MODBUS\modbus\tcp\mbtcp.o
 .debug_abbrev  0x00000000       0x4b BSP\MODBUS\modbus\tcp\mbtcp.o
 .debug_aranges
                0x00000000       0x18 BSP\MODBUS\modbus\tcp\mbtcp.o
 .debug_line    0x00000000      0x144 BSP\MODBUS\modbus\tcp\mbtcp.o
 .debug_str     0x00000000      0x19b BSP\MODBUS\modbus\tcp\mbtcp.o
 .comment       0x00000000       0x7f BSP\MODBUS\modbus\tcp\mbtcp.o
 .ARM.attributes
                0x00000000       0x33 BSP\MODBUS\modbus\tcp\mbtcp.o
 .text          0x00000000        0x0 BSP\MODBUS\port\portevent.o
 .data          0x00000000        0x0 BSP\MODBUS\port\portevent.o
 .bss           0x00000000        0x0 BSP\MODBUS\port\portevent.o
 .text          0x00000000        0x0 BSP\MODBUS\port\portserial.o
 .data          0x00000000        0x0 BSP\MODBUS\port\portserial.o
 .bss           0x00000000        0x0 BSP\MODBUS\port\portserial.o
 .text          0x00000000        0x0 BSP\MODBUS\port\porttimer.o
 .data          0x00000000        0x0 BSP\MODBUS\port\porttimer.o
 .bss           0x00000000        0x0 BSP\MODBUS\port\porttimer.o
 .text          0x00000000        0x0 BSP\PZEM004T\src\PZEM004T.o
 .data          0x00000000        0x0 BSP\PZEM004T\src\PZEM004T.o
 .bss           0x00000000        0x0 BSP\PZEM004T\src\PZEM004T.o
 .data.AC_DataReceive_Cfg
                0x00000000       0x48 BSP\PZEM004T\src\PZEM004T.o
 .text.ADCT_PZEM004T_GetChar
                0x00000000       0x2c BSP\PZEM004T\src\PZEM004T.o
 .text.ADCT_PZEM004T_PutString
                0x00000000       0x2c BSP\PZEM004T\src\PZEM004T.o
 .text.ADCT_PZEM004T_PutFrame
                0x00000000       0x3c BSP\PZEM004T\src\PZEM004T.o
 .bss.idElement
                0x00000000        0x1 BSP\PZEM004T\src\PZEM004T.o
 .bss.start_get
                0x00000000        0x1 BSP\PZEM004T\src\PZEM004T.o
 COMMON         0x00000000       0x24 BSP\PZEM004T\src\PZEM004T.o
 .text          0x00000000        0x0 BSP\PZEM004T\src\fifo.o
 .data          0x00000000        0x0 BSP\PZEM004T\src\fifo.o
 .bss           0x00000000        0x0 BSP\PZEM004T\src\fifo.o
 .text          0x00000000        0x0 BSP\PhSensor\src\ADCT_PhSensor.o
 .data          0x00000000        0x0 BSP\PhSensor\src\ADCT_PhSensor.o
 .bss           0x00000000        0x0 BSP\PhSensor\src\ADCT_PhSensor.o
 .text.avergearray
                0x00000000      0x124 BSP\PhSensor\src\ADCT_PhSensor.o
 .text          0x00000000        0x0 BSP\RELAY\src\ADCT_Relay.o
 .data          0x00000000        0x0 BSP\RELAY\src\ADCT_Relay.o
 .bss           0x00000000        0x0 BSP\RELAY\src\ADCT_Relay.o
 .text          0x00000000        0x0 BSP\RTC\src\ADCT_RTC.o
 .data          0x00000000        0x0 BSP\RTC\src\ADCT_RTC.o
 .bss           0x00000000        0x0 BSP\RTC\src\ADCT_RTC.o
 .text.SummerTimeCorrection
                0x00000000      0x2e4 BSP\RTC\src\ADCT_RTC.o
 .text.ADCT_BGS_SetTime
                0x00000000       0x44 BSP\RTC\src\ADCT_RTC.o
 .text.DisplayTime
                0x00000000       0x38 BSP\RTC\src\ADCT_RTC.o
 .text          0x00000000        0x0 BSP\SENSOR\src\ADCT_Sensor.o
 .data          0x00000000        0x0 BSP\SENSOR\src\ADCT_Sensor.o
 .bss           0x00000000        0x0 BSP\SENSOR\src\ADCT_Sensor.o
 .text          0x00000000        0x0 BSP\delay\src\ADCT_BGS_FPT_Delay.o
 .data          0x00000000        0x0 BSP\delay\src\ADCT_BGS_FPT_Delay.o
 .bss           0x00000000        0x0 BSP\delay\src\ADCT_BGS_FPT_Delay.o
 .text.TM_DELAY_TimerDelete
                0x00000000       0xa8 BSP\delay\src\ADCT_BGS_FPT_Delay.o
 .text.TM_DELAY_TimerStop
                0x00000000       0x20 BSP\delay\src\ADCT_BGS_FPT_Delay.o
 .text.TM_DELAY_TimerStart
                0x00000000       0x20 BSP\delay\src\ADCT_BGS_FPT_Delay.o
 .text.TM_DELAY_TimerReset
                0x00000000       0x1c BSP\delay\src\ADCT_BGS_FPT_Delay.o
 .text.TM_DELAY_TimerAutoReloadCommand
                0x00000000       0x30 BSP\delay\src\ADCT_BGS_FPT_Delay.o
 .text.TM_DELAY_TimerAutoReloadValue
                0x00000000       0x1c BSP\delay\src\ADCT_BGS_FPT_Delay.o
 .text.HAL_Delay
                0x00000000       0x54 BSP\delay\src\ADCT_BGS_FPT_Delay.o
 .text.HAL_GetTick
                0x00000000       0x14 BSP\delay\src\ADCT_BGS_FPT_Delay.o
 .text          0x00000000        0x0 Libraries\STM32F10x_StdPeriph_Driver\src\misc.o
 .data          0x00000000        0x0 Libraries\STM32F10x_StdPeriph_Driver\src\misc.o
 .bss           0x00000000        0x0 Libraries\STM32F10x_StdPeriph_Driver\src\misc.o
 .text.NVIC_SetVectorTable
                0x00000000       0x2c Libraries\STM32F10x_StdPeriph_Driver\src\misc.o
 .text.NVIC_SystemLPConfig
                0x00000000       0x40 Libraries\STM32F10x_StdPeriph_Driver\src\misc.o
 .text.SysTick_CLKSourceConfig
                0x00000000       0x38 Libraries\STM32F10x_StdPeriph_Driver\src\misc.o
 .text          0x00000000        0x0 Libraries\STM32F10x_StdPeriph_Driver\src\stm32f10x_adc.o
 .data          0x00000000        0x0 Libraries\STM32F10x_StdPeriph_Driver\src\stm32f10x_adc.o
 .bss           0x00000000        0x0 Libraries\STM32F10x_StdPeriph_Driver\src\stm32f10x_adc.o
 .text.ADC_DeInit
                0x00000000       0x74 Libraries\STM32F10x_StdPeriph_Driver\src\stm32f10x_adc.o
 .text.ADC_StructInit
                0x00000000       0x38 Libraries\STM32F10x_StdPeriph_Driver\src\stm32f10x_adc.o
 .text.ADC_DMACmd
                0x00000000       0x38 Libraries\STM32F10x_StdPeriph_Driver\src\stm32f10x_adc.o
 .text.ADC_ITConfig
                0x00000000       0x44 Libraries\STM32F10x_StdPeriph_Driver\src\stm32f10x_adc.o
 .text.ADC_GetSoftwareStartConvStatus
                0x00000000       0x30 Libraries\STM32F10x_StdPeriph_Driver\src\stm32f10x_adc.o
 .text.ADC_DiscModeChannelCountConfig
                0x00000000       0x44 Libraries\STM32F10x_StdPeriph_Driver\src\stm32f10x_adc.o
 .text.ADC_DiscModeCmd
                0x00000000       0x38 Libraries\STM32F10x_StdPeriph_Driver\src\stm32f10x_adc.o
 .text.ADC_ExternalTrigConvCmd
                0x00000000       0x38 Libraries\STM32F10x_StdPeriph_Driver\src\stm32f10x_adc.o
 .text.ADC_GetDualModeConversionValue
                0x00000000       0x14 Libraries\STM32F10x_StdPeriph_Driver\src\stm32f10x_adc.o
 .text.ADC_AutoInjectedConvCmd
                0x00000000       0x38 Libraries\STM32F10x_StdPeriph_Driver\src\stm32f10x_adc.o
 .text.ADC_InjectedDiscModeCmd
                0x00000000       0x38 Libraries\STM32F10x_StdPeriph_Driver\src\stm32f10x_adc.o
 .text.ADC_ExternalTrigInjectedConvConfig
                0x00000000       0x34 Libraries\STM32F10x_StdPeriph_Driver\src\stm32f10x_adc.o
 .text.ADC_ExternalTrigInjectedConvCmd
                0x00000000       0x38 Libraries\STM32F10x_StdPeriph_Driver\src\stm32f10x_adc.o
 .text.ADC_SoftwareStartInjectedConvCmd
                0x00000000       0x38 Libraries\STM32F10x_StdPeriph_Driver\src\stm32f10x_adc.o
 .text.ADC_GetSoftwareStartInjectedConvCmdStatus
                0x00000000       0x30 Libraries\STM32F10x_StdPeriph_Driver\src\stm32f10x_adc.o
 .text.ADC_InjectedChannelConfig
                0x00000000      0x120 Libraries\STM32F10x_StdPeriph_Driver\src\stm32f10x_adc.o
 .text.ADC_InjectedSequencerLengthConfig
                0x00000000       0x44 Libraries\STM32F10x_StdPeriph_Driver\src\stm32f10x_adc.o
 .text.ADC_SetInjectedOffset
                0x00000000       0x34 Libraries\STM32F10x_StdPeriph_Driver\src\stm32f10x_adc.o
 .text.ADC_GetInjectedConversionValue
                0x00000000       0x30 Libraries\STM32F10x_StdPeriph_Driver\src\stm32f10x_adc.o
 .text.ADC_AnalogWatchdogCmd
                0x00000000       0x38 Libraries\STM32F10x_StdPeriph_Driver\src\stm32f10x_adc.o
 .text.ADC_AnalogWatchdogThresholdsConfig
                0x00000000       0x28 Libraries\STM32F10x_StdPeriph_Driver\src\stm32f10x_adc.o
 .text.ADC_AnalogWatchdogSingleChannelConfig
                0x00000000       0x38 Libraries\STM32F10x_StdPeriph_Driver\src\stm32f10x_adc.o
 .text.ADC_GetFlagStatus
                0x00000000       0x34 Libraries\STM32F10x_StdPeriph_Driver\src\stm32f10x_adc.o
 .text.ADC_ClearFlag
                0x00000000       0x20 Libraries\STM32F10x_StdPeriph_Driver\src\stm32f10x_adc.o
 .text.ADC_GetITStatus
                0x00000000       0x54 Libraries\STM32F10x_StdPeriph_Driver\src\stm32f10x_adc.o
 .text.ADC_ClearITPendingBit
                0x00000000       0x2c Libraries\STM32F10x_StdPeriph_Driver\src\stm32f10x_adc.o
 .text          0x00000000        0x0 Libraries\STM32F10x_StdPeriph_Driver\src\stm32f10x_bkp.o
 .data          0x00000000        0x0 Libraries\STM32F10x_StdPeriph_Driver\src\stm32f10x_bkp.o
 .bss           0x00000000        0x0 Libraries\STM32F10x_StdPeriph_Driver\src\stm32f10x_bkp.o
 .text.BKP_TamperPinLevelConfig
                0x00000000       0x20 Libraries\STM32F10x_StdPeriph_Driver\src\stm32f10x_bkp.o
 .text.BKP_TamperPinCmd
                0x00000000       0x20 Libraries\STM32F10x_StdPeriph_Driver\src\stm32f10x_bkp.o
 .text.BKP_ITConfig
                0x00000000       0x20 Libraries\STM32F10x_StdPeriph_Driver\src\stm32f10x_bkp.o
 .text.BKP_SetRTCCalibrationValue
                0x00000000       0x3c Libraries\STM32F10x_StdPeriph_Driver\src\stm32f10x_bkp.o
 .text.BKP_GetFlagStatus
                0x00000000       0x18 Libraries\STM32F10x_StdPeriph_Driver\src\stm32f10x_bkp.o
 .text.BKP_ClearFlag
                0x00000000       0x20 Libraries\STM32F10x_StdPeriph_Driver\src\stm32f10x_bkp.o
 .text.BKP_GetITStatus
                0x00000000       0x18 Libraries\STM32F10x_StdPeriph_Driver\src\stm32f10x_bkp.o
 .text.BKP_ClearITPendingBit
                0x00000000       0x20 Libraries\STM32F10x_StdPeriph_Driver\src\stm32f10x_bkp.o
 .text          0x00000000        0x0 Libraries\STM32F10x_StdPeriph_Driver\src\stm32f10x_can.o
 .data          0x00000000        0x0 Libraries\STM32F10x_StdPeriph_Driver\src\stm32f10x_can.o
 .bss           0x00000000        0x0 Libraries\STM32F10x_StdPeriph_Driver\src\stm32f10x_can.o
 .text.CAN_DeInit
                0x00000000       0x48 Libraries\STM32F10x_StdPeriph_Driver\src\stm32f10x_can.o
 .text.CAN_Init
                0x00000000      0x1a0 Libraries\STM32F10x_StdPeriph_Driver\src\stm32f10x_can.o
 .text.CAN_FilterInit
                0x00000000      0x174 Libraries\STM32F10x_StdPeriph_Driver\src\stm32f10x_can.o
 .text.CAN_StructInit
                0x00000000       0x54 Libraries\STM32F10x_StdPeriph_Driver\src\stm32f10x_can.o
 .text.CAN_SlaveStartBank
                0x00000000       0x60 Libraries\STM32F10x_StdPeriph_Driver\src\stm32f10x_can.o
 .text.CAN_DBGFreeze
                0x00000000       0x38 Libraries\STM32F10x_StdPeriph_Driver\src\stm32f10x_can.o
 .text.CAN_TTComModeCmd
                0x00000000       0x98 Libraries\STM32F10x_StdPeriph_Driver\src\stm32f10x_can.o
 .text.CAN_Transmit
                0x00000000      0x194 Libraries\STM32F10x_StdPeriph_Driver\src\stm32f10x_can.o
 .text.CAN_TransmitStatus
                0x00000000       0xd4 Libraries\STM32F10x_StdPeriph_Driver\src\stm32f10x_can.o
 .text.CAN_CancelTransmit
                0x00000000       0x50 Libraries\STM32F10x_StdPeriph_Driver\src\stm32f10x_can.o
 .text.CAN_Receive
                0x00000000      0x174 Libraries\STM32F10x_StdPeriph_Driver\src\stm32f10x_can.o
 .text.CAN_FIFORelease
                0x00000000       0x38 Libraries\STM32F10x_StdPeriph_Driver\src\stm32f10x_can.o
 .text.CAN_MessagePending
                0x00000000       0x48 Libraries\STM32F10x_StdPeriph_Driver\src\stm32f10x_can.o
 .text.CAN_OperatingModeRequest
                0x00000000       0xfc Libraries\STM32F10x_StdPeriph_Driver\src\stm32f10x_can.o
 .text.CAN_Sleep
                0x00000000       0x38 Libraries\STM32F10x_StdPeriph_Driver\src\stm32f10x_can.o
 .text.CAN_WakeUp
                0x00000000       0x54 Libraries\STM32F10x_StdPeriph_Driver\src\stm32f10x_can.o
 .text.CAN_GetLastErrorCode
                0x00000000       0x24 Libraries\STM32F10x_StdPeriph_Driver\src\stm32f10x_can.o
 .text.CAN_GetReceiveErrorCounter
                0x00000000       0x24 Libraries\STM32F10x_StdPeriph_Driver\src\stm32f10x_can.o
 .text.CAN_GetLSBTransmitErrorCounter
                0x00000000       0x24 Libraries\STM32F10x_StdPeriph_Driver\src\stm32f10x_can.o
 .text.CAN_ITConfig
                0x00000000       0x3c Libraries\STM32F10x_StdPeriph_Driver\src\stm32f10x_can.o
 .text.CAN_GetFlagStatus
                0x00000000       0xcc Libraries\STM32F10x_StdPeriph_Driver\src\stm32f10x_can.o
 .text.CAN_ClearFlag
                0x00000000       0x70 Libraries\STM32F10x_StdPeriph_Driver\src\stm32f10x_can.o
 .text.CAN_GetITStatus
                0x00000000      0x194 Libraries\STM32F10x_StdPeriph_Driver\src\stm32f10x_can.o
 .text.CAN_ClearITPendingBit
                0x00000000       0xdc Libraries\STM32F10x_StdPeriph_Driver\src\stm32f10x_can.o
 .text.CheckITStatus
                0x00000000       0x30 Libraries\STM32F10x_StdPeriph_Driver\src\stm32f10x_can.o
 .debug_info    0x00000000      0xba8 Libraries\STM32F10x_StdPeriph_Driver\src\stm32f10x_can.o
 .debug_abbrev  0x00000000      0x1f7 Libraries\STM32F10x_StdPeriph_Driver\src\stm32f10x_can.o
 .debug_aranges
                0x00000000       0xe0 Libraries\STM32F10x_StdPeriph_Driver\src\stm32f10x_can.o
 .debug_ranges  0x00000000       0xd0 Libraries\STM32F10x_StdPeriph_Driver\src\stm32f10x_can.o
 .debug_line    0x00000000      0x5c0 Libraries\STM32F10x_StdPeriph_Driver\src\stm32f10x_can.o
 .debug_str     0x00000000      0x772 Libraries\STM32F10x_StdPeriph_Driver\src\stm32f10x_can.o
 .comment       0x00000000       0x7f Libraries\STM32F10x_StdPeriph_Driver\src\stm32f10x_can.o
 .debug_frame   0x00000000      0x3f0 Libraries\STM32F10x_StdPeriph_Driver\src\stm32f10x_can.o
 .ARM.attributes
                0x00000000       0x33 Libraries\STM32F10x_StdPeriph_Driver\src\stm32f10x_can.o
 .text          0x00000000        0x0 Libraries\STM32F10x_StdPeriph_Driver\src\stm32f10x_cec.o
 .data          0x00000000        0x0 Libraries\STM32F10x_StdPeriph_Driver\src\stm32f10x_cec.o
 .bss           0x00000000        0x0 Libraries\STM32F10x_StdPeriph_Driver\src\stm32f10x_cec.o
 .text.CEC_DeInit
                0x00000000       0x1c Libraries\STM32F10x_StdPeriph_Driver\src\stm32f10x_cec.o
 .text.CEC_Init
                0x00000000       0x40 Libraries\STM32F10x_StdPeriph_Driver\src\stm32f10x_cec.o
 .text.CEC_Cmd  0x00000000       0x38 Libraries\STM32F10x_StdPeriph_Driver\src\stm32f10x_cec.o
 .text.CEC_ITConfig
                0x00000000       0x20 Libraries\STM32F10x_StdPeriph_Driver\src\stm32f10x_cec.o
 .text.CEC_OwnAddressConfig
                0x00000000       0x20 Libraries\STM32F10x_StdPeriph_Driver\src\stm32f10x_cec.o
 .text.CEC_SetPrescaler
                0x00000000       0x20 Libraries\STM32F10x_StdPeriph_Driver\src\stm32f10x_cec.o
 .text.CEC_SendDataByte
                0x00000000       0x20 Libraries\STM32F10x_StdPeriph_Driver\src\stm32f10x_cec.o
 .text.CEC_ReceiveDataByte
                0x00000000       0x18 Libraries\STM32F10x_StdPeriph_Driver\src\stm32f10x_cec.o
 .text.CEC_StartOfMessage
                0x00000000       0x18 Libraries\STM32F10x_StdPeriph_Driver\src\stm32f10x_cec.o
 .text.CEC_EndOfMessageCmd
                0x00000000       0x20 Libraries\STM32F10x_StdPeriph_Driver\src\stm32f10x_cec.o
 .text.CEC_GetFlagStatus
                0x00000000       0x68 Libraries\STM32F10x_StdPeriph_Driver\src\stm32f10x_cec.o
 .text.CEC_ClearFlag
                0x00000000       0x3c Libraries\STM32F10x_StdPeriph_Driver\src\stm32f10x_cec.o
 .text.CEC_GetITStatus
                0x00000000       0x48 Libraries\STM32F10x_StdPeriph_Driver\src\stm32f10x_cec.o
 .text.CEC_ClearITPendingBit
                0x00000000       0x3c Libraries\STM32F10x_StdPeriph_Driver\src\stm32f10x_cec.o
 .debug_info    0x00000000      0x429 Libraries\STM32F10x_StdPeriph_Driver\src\stm32f10x_cec.o
 .debug_abbrev  0x00000000      0x1b2 Libraries\STM32F10x_StdPeriph_Driver\src\stm32f10x_cec.o
 .debug_aranges
                0x00000000       0x88 Libraries\STM32F10x_StdPeriph_Driver\src\stm32f10x_cec.o
 .debug_ranges  0x00000000       0x78 Libraries\STM32F10x_StdPeriph_Driver\src\stm32f10x_cec.o
 .debug_line    0x00000000      0x361 Libraries\STM32F10x_StdPeriph_Driver\src\stm32f10x_cec.o
 .debug_str     0x00000000      0x3ba Libraries\STM32F10x_StdPeriph_Driver\src\stm32f10x_cec.o
 .comment       0x00000000       0x7f Libraries\STM32F10x_StdPeriph_Driver\src\stm32f10x_cec.o
 .debug_frame   0x00000000      0x224 Libraries\STM32F10x_StdPeriph_Driver\src\stm32f10x_cec.o
 .ARM.attributes
                0x00000000       0x33 Libraries\STM32F10x_StdPeriph_Driver\src\stm32f10x_cec.o
 .text          0x00000000        0x0 Libraries\STM32F10x_StdPeriph_Driver\src\stm32f10x_crc.o
 .data          0x00000000        0x0 Libraries\STM32F10x_StdPeriph_Driver\src\stm32f10x_crc.o
 .bss           0x00000000        0x0 Libraries\STM32F10x_StdPeriph_Driver\src\stm32f10x_crc.o
 .text.CRC_ResetDR
                0x00000000       0x18 Libraries\STM32F10x_StdPeriph_Driver\src\stm32f10x_crc.o
 .text.CRC_CalcCRC
                0x00000000       0x20 Libraries\STM32F10x_StdPeriph_Driver\src\stm32f10x_crc.o
 .text.CRC_CalcBlockCRC
                0x00000000       0x44 Libraries\STM32F10x_StdPeriph_Driver\src\stm32f10x_crc.o
 .text.CRC_GetCRC
                0x00000000       0x14 Libraries\STM32F10x_StdPeriph_Driver\src\stm32f10x_crc.o
 .text.CRC_SetIDRegister
                0x00000000       0x20 Libraries\STM32F10x_StdPeriph_Driver\src\stm32f10x_crc.o
 .text.CRC_GetIDRegister
                0x00000000       0x18 Libraries\STM32F10x_StdPeriph_Driver\src\stm32f10x_crc.o
 .debug_info    0x00000000      0x20c Libraries\STM32F10x_StdPeriph_Driver\src\stm32f10x_crc.o
 .debug_abbrev  0x00000000      0x116 Libraries\STM32F10x_StdPeriph_Driver\src\stm32f10x_crc.o
 .debug_aranges
                0x00000000       0x48 Libraries\STM32F10x_StdPeriph_Driver\src\stm32f10x_crc.o
 .debug_ranges  0x00000000       0x38 Libraries\STM32F10x_StdPeriph_Driver\src\stm32f10x_crc.o
 .debug_line    0x00000000      0x25e Libraries\STM32F10x_StdPeriph_Driver\src\stm32f10x_crc.o
 .debug_str     0x00000000      0x27f Libraries\STM32F10x_StdPeriph_Driver\src\stm32f10x_crc.o
 .comment       0x00000000       0x7f Libraries\STM32F10x_StdPeriph_Driver\src\stm32f10x_crc.o
 .debug_frame   0x00000000       0xe8 Libraries\STM32F10x_StdPeriph_Driver\src\stm32f10x_crc.o
 .ARM.attributes
                0x00000000       0x33 Libraries\STM32F10x_StdPeriph_Driver\src\stm32f10x_crc.o
 .text          0x00000000        0x0 Libraries\STM32F10x_StdPeriph_Driver\src\stm32f10x_dac.o
 .data          0x00000000        0x0 Libraries\STM32F10x_StdPeriph_Driver\src\stm32f10x_dac.o
 .bss           0x00000000        0x0 Libraries\STM32F10x_StdPeriph_Driver\src\stm32f10x_dac.o
 .text.DAC_DeInit
                0x00000000       0x1c Libraries\STM32F10x_StdPeriph_Driver\src\stm32f10x_dac.o
 .text.DAC_Init
                0x00000000       0x64 Libraries\STM32F10x_StdPeriph_Driver\src\stm32f10x_dac.o
 .text.DAC_StructInit
                0x00000000       0x2c Libraries\STM32F10x_StdPeriph_Driver\src\stm32f10x_dac.o
 .text.DAC_Cmd  0x00000000       0x48 Libraries\STM32F10x_StdPeriph_Driver\src\stm32f10x_dac.o
 .text.DAC_DMACmd
                0x00000000       0x4c Libraries\STM32F10x_StdPeriph_Driver\src\stm32f10x_dac.o
 .text.DAC_SoftwareTriggerCmd
                0x00000000       0x4c Libraries\STM32F10x_StdPeriph_Driver\src\stm32f10x_dac.o
 .text.DAC_DualSoftwareTriggerCmd
                0x00000000       0x38 Libraries\STM32F10x_StdPeriph_Driver\src\stm32f10x_dac.o
 .text.DAC_WaveGenerationCmd
                0x00000000       0x4c Libraries\STM32F10x_StdPeriph_Driver\src\stm32f10x_dac.o
 .text.DAC_SetChannel1Data
                0x00000000       0x34 Libraries\STM32F10x_StdPeriph_Driver\src\stm32f10x_dac.o
 .text.DAC_SetChannel2Data
                0x00000000       0x34 Libraries\STM32F10x_StdPeriph_Driver\src\stm32f10x_dac.o
 .text.DAC_SetDualChannelData
                0x00000000       0x58 Libraries\STM32F10x_StdPeriph_Driver\src\stm32f10x_dac.o
 .text.DAC_GetDataOutputValue
                0x00000000       0x30 Libraries\STM32F10x_StdPeriph_Driver\src\stm32f10x_dac.o
 .debug_info    0x00000000      0x4b8 Libraries\STM32F10x_StdPeriph_Driver\src\stm32f10x_dac.o
 .debug_abbrev  0x00000000      0x177 Libraries\STM32F10x_StdPeriph_Driver\src\stm32f10x_dac.o
 .debug_aranges
                0x00000000       0x78 Libraries\STM32F10x_StdPeriph_Driver\src\stm32f10x_dac.o
 .debug_ranges  0x00000000       0x68 Libraries\STM32F10x_StdPeriph_Driver\src\stm32f10x_dac.o
 .debug_line    0x00000000      0x33d Libraries\STM32F10x_StdPeriph_Driver\src\stm32f10x_dac.o
 .debug_str     0x00000000      0x3f3 Libraries\STM32F10x_StdPeriph_Driver\src\stm32f10x_dac.o
 .comment       0x00000000       0x7f Libraries\STM32F10x_StdPeriph_Driver\src\stm32f10x_dac.o
 .debug_frame   0x00000000      0x1e4 Libraries\STM32F10x_StdPeriph_Driver\src\stm32f10x_dac.o
 .ARM.attributes
                0x00000000       0x33 Libraries\STM32F10x_StdPeriph_Driver\src\stm32f10x_dac.o
 .text          0x00000000        0x0 Libraries\STM32F10x_StdPeriph_Driver\src\stm32f10x_dbgmcu.o
 .data          0x00000000        0x0 Libraries\STM32F10x_StdPeriph_Driver\src\stm32f10x_dbgmcu.o
 .bss           0x00000000        0x0 Libraries\STM32F10x_StdPeriph_Driver\src\stm32f10x_dbgmcu.o
 .text.DBGMCU_GetREVID
                0x00000000       0x18 Libraries\STM32F10x_StdPeriph_Driver\src\stm32f10x_dbgmcu.o
 .text.DBGMCU_GetDEVID
                0x00000000       0x18 Libraries\STM32F10x_StdPeriph_Driver\src\stm32f10x_dbgmcu.o
 .text.DBGMCU_Config
                0x00000000       0x3c Libraries\STM32F10x_StdPeriph_Driver\src\stm32f10x_dbgmcu.o
 .debug_info    0x00000000      0x166 Libraries\STM32F10x_StdPeriph_Driver\src\stm32f10x_dbgmcu.o
 .debug_abbrev  0x00000000       0xe2 Libraries\STM32F10x_StdPeriph_Driver\src\stm32f10x_dbgmcu.o
 .debug_aranges
                0x00000000       0x30 Libraries\STM32F10x_StdPeriph_Driver\src\stm32f10x_dbgmcu.o
 .debug_ranges  0x00000000       0x20 Libraries\STM32F10x_StdPeriph_Driver\src\stm32f10x_dbgmcu.o
 .debug_line    0x00000000      0x21a Libraries\STM32F10x_StdPeriph_Driver\src\stm32f10x_dbgmcu.o
 .debug_str     0x00000000      0x236 Libraries\STM32F10x_StdPeriph_Driver\src\stm32f10x_dbgmcu.o
 .comment       0x00000000       0x7f Libraries\STM32F10x_StdPeriph_Driver\src\stm32f10x_dbgmcu.o
 .debug_frame   0x00000000       0x78 Libraries\STM32F10x_StdPeriph_Driver\src\stm32f10x_dbgmcu.o
 .ARM.attributes
                0x00000000       0x33 Libraries\STM32F10x_StdPeriph_Driver\src\stm32f10x_dbgmcu.o
 .text          0x00000000        0x0 Libraries\STM32F10x_StdPeriph_Driver\src\stm32f10x_dma.o
 .data          0x00000000        0x0 Libraries\STM32F10x_StdPeriph_Driver\src\stm32f10x_dma.o
 .bss           0x00000000        0x0 Libraries\STM32F10x_StdPeriph_Driver\src\stm32f10x_dma.o
 .text.DMA_StructInit
                0x00000000       0x54 Libraries\STM32F10x_StdPeriph_Driver\src\stm32f10x_dma.o
 .text.DMA_SetCurrDataCounter
                0x00000000       0x1c Libraries\STM32F10x_StdPeriph_Driver\src\stm32f10x_dma.o
 .text.DMA_GetCurrDataCounter
                0x00000000       0x18 Libraries\STM32F10x_StdPeriph_Driver\src\stm32f10x_dma.o
 .text.DMA_GetITStatus
                0x00000000       0x50 Libraries\STM32F10x_StdPeriph_Driver\src\stm32f10x_dma.o
 .text.DMA_ClearITPendingBit
                0x00000000       0x34 Libraries\STM32F10x_StdPeriph_Driver\src\stm32f10x_dma.o
 .text          0x00000000        0x0 Libraries\STM32F10x_StdPeriph_Driver\src\stm32f10x_exti.o
 .data          0x00000000        0x0 Libraries\STM32F10x_StdPeriph_Driver\src\stm32f10x_exti.o
 .bss           0x00000000        0x0 Libraries\STM32F10x_StdPeriph_Driver\src\stm32f10x_exti.o
 .text.EXTI_DeInit
                0x00000000       0x34 Libraries\STM32F10x_StdPeriph_Driver\src\stm32f10x_exti.o
 .text.EXTI_StructInit
                0x00000000       0x2c Libraries\STM32F10x_StdPeriph_Driver\src\stm32f10x_exti.o
 .text.EXTI_GenerateSWInterrupt
                0x00000000       0x24 Libraries\STM32F10x_StdPeriph_Driver\src\stm32f10x_exti.o
 .text.EXTI_GetFlagStatus
                0x00000000       0x34 Libraries\STM32F10x_StdPeriph_Driver\src\stm32f10x_exti.o
 .text.EXTI_ClearFlag
                0x00000000       0x1c Libraries\STM32F10x_StdPeriph_Driver\src\stm32f10x_exti.o
 .text          0x00000000        0x0 Libraries\STM32F10x_StdPeriph_Driver\src\stm32f10x_flash.o
 .data          0x00000000        0x0 Libraries\STM32F10x_StdPeriph_Driver\src\stm32f10x_flash.o
 .bss           0x00000000        0x0 Libraries\STM32F10x_StdPeriph_Driver\src\stm32f10x_flash.o
 .text.FLASH_HalfCycleAccessCmd
                0x00000000       0x30 Libraries\STM32F10x_StdPeriph_Driver\src\stm32f10x_flash.o
 .text.FLASH_UnlockBank1
                0x00000000       0x24 Libraries\STM32F10x_StdPeriph_Driver\src\stm32f10x_flash.o
 .text.FLASH_Lock
                0x00000000       0x1c Libraries\STM32F10x_StdPeriph_Driver\src\stm32f10x_flash.o
 .text.FLASH_LockBank1
                0x00000000       0x1c Libraries\STM32F10x_StdPeriph_Driver\src\stm32f10x_flash.o
 .text.FLASH_ErasePage
                0x00000000       0x64 Libraries\STM32F10x_StdPeriph_Driver\src\stm32f10x_flash.o
 .text.FLASH_EraseAllPages
                0x00000000       0x5c Libraries\STM32F10x_StdPeriph_Driver\src\stm32f10x_flash.o
 .text.FLASH_EraseAllBank1Pages
                0x00000000       0x5c Libraries\STM32F10x_StdPeriph_Driver\src\stm32f10x_flash.o
 .text.FLASH_EraseOptionBytes
                0x00000000       0xd4 Libraries\STM32F10x_StdPeriph_Driver\src\stm32f10x_flash.o
 .text.FLASH_ProgramWord
                0x00000000       0x94 Libraries\STM32F10x_StdPeriph_Driver\src\stm32f10x_flash.o
 .text.FLASH_ProgramHalfWord
                0x00000000       0x5c Libraries\STM32F10x_StdPeriph_Driver\src\stm32f10x_flash.o
 .text.FLASH_ProgramOptionByteData
                0x00000000       0x78 Libraries\STM32F10x_StdPeriph_Driver\src\stm32f10x_flash.o
 .text.FLASH_EnableWriteProtection
                0x00000000      0x118 Libraries\STM32F10x_StdPeriph_Driver\src\stm32f10x_flash.o
 .text.FLASH_ReadOutProtection
                0x00000000       0xd4 Libraries\STM32F10x_StdPeriph_Driver\src\stm32f10x_flash.o
 .text.FLASH_UserOptionByteConfig
                0x00000000       0x94 Libraries\STM32F10x_StdPeriph_Driver\src\stm32f10x_flash.o
 .text.FLASH_GetUserOptionByte
                0x00000000       0x18 Libraries\STM32F10x_StdPeriph_Driver\src\stm32f10x_flash.o
 .text.FLASH_GetWriteProtectionOptionByte
                0x00000000       0x14 Libraries\STM32F10x_StdPeriph_Driver\src\stm32f10x_flash.o
 .text.FLASH_GetReadOutProtectionStatus
                0x00000000       0x30 Libraries\STM32F10x_StdPeriph_Driver\src\stm32f10x_flash.o
 .text.FLASH_GetPrefetchBufferStatus
                0x00000000       0x30 Libraries\STM32F10x_StdPeriph_Driver\src\stm32f10x_flash.o
 .text.FLASH_ITConfig
                0x00000000       0x3c Libraries\STM32F10x_StdPeriph_Driver\src\stm32f10x_flash.o
 .text.FLASH_GetFlagStatus
                0x00000000       0x50 Libraries\STM32F10x_StdPeriph_Driver\src\stm32f10x_flash.o
 .text.FLASH_ClearFlag
                0x00000000       0x1c Libraries\STM32F10x_StdPeriph_Driver\src\stm32f10x_flash.o
 .text.FLASH_GetStatus
                0x00000000       0x54 Libraries\STM32F10x_StdPeriph_Driver\src\stm32f10x_flash.o
 .text.FLASH_GetBank1Status
                0x00000000       0x54 Libraries\STM32F10x_StdPeriph_Driver\src\stm32f10x_flash.o
 .text.FLASH_WaitForLastOperation
                0x00000000       0x44 Libraries\STM32F10x_StdPeriph_Driver\src\stm32f10x_flash.o
 .text.FLASH_WaitForLastBank1Operation
                0x00000000       0x44 Libraries\STM32F10x_StdPeriph_Driver\src\stm32f10x_flash.o
 .text          0x00000000        0x0 Libraries\STM32F10x_StdPeriph_Driver\src\stm32f10x_fsmc.o
 .data          0x00000000        0x0 Libraries\STM32F10x_StdPeriph_Driver\src\stm32f10x_fsmc.o
 .bss           0x00000000        0x0 Libraries\STM32F10x_StdPeriph_Driver\src\stm32f10x_fsmc.o
 .text.FSMC_NORSRAMDeInit
                0x00000000       0x58 Libraries\STM32F10x_StdPeriph_Driver\src\stm32f10x_fsmc.o
 .text.FSMC_NANDDeInit
                0x00000000       0x5c Libraries\STM32F10x_StdPeriph_Driver\src\stm32f10x_fsmc.o
 .text.FSMC_PCCARDDeInit
                0x00000000       0x34 Libraries\STM32F10x_StdPeriph_Driver\src\stm32f10x_fsmc.o
 .text.FSMC_NORSRAMInit
                0x00000000      0x134 Libraries\STM32F10x_StdPeriph_Driver\src\stm32f10x_fsmc.o
 .text.FSMC_NANDInit
                0x00000000       0xcc Libraries\STM32F10x_StdPeriph_Driver\src\stm32f10x_fsmc.o
 .text.FSMC_PCCARDInit
                0x00000000       0xac Libraries\STM32F10x_StdPeriph_Driver\src\stm32f10x_fsmc.o
 .text.FSMC_NORSRAMStructInit
                0x00000000       0xd4 Libraries\STM32F10x_StdPeriph_Driver\src\stm32f10x_fsmc.o
 .text.FSMC_NANDStructInit
                0x00000000       0x7c Libraries\STM32F10x_StdPeriph_Driver\src\stm32f10x_fsmc.o
 .text.FSMC_PCCARDStructInit
                0x00000000       0x84 Libraries\STM32F10x_StdPeriph_Driver\src\stm32f10x_fsmc.o
 .text.FSMC_NORSRAMCmd
                0x00000000       0x54 Libraries\STM32F10x_StdPeriph_Driver\src\stm32f10x_fsmc.o
 .text.FSMC_NANDCmd
                0x00000000       0x6c Libraries\STM32F10x_StdPeriph_Driver\src\stm32f10x_fsmc.o
 .text.FSMC_PCCARDCmd
                0x00000000       0x3c Libraries\STM32F10x_StdPeriph_Driver\src\stm32f10x_fsmc.o
 .text.FSMC_NANDECCCmd
                0x00000000       0x6c Libraries\STM32F10x_StdPeriph_Driver\src\stm32f10x_fsmc.o
 .text.FSMC_GetECC
                0x00000000       0x34 Libraries\STM32F10x_StdPeriph_Driver\src\stm32f10x_fsmc.o
 .text.FSMC_ITConfig
                0x00000000       0xa0 Libraries\STM32F10x_StdPeriph_Driver\src\stm32f10x_fsmc.o
 .text.FSMC_GetFlagStatus
                0x00000000       0x64 Libraries\STM32F10x_StdPeriph_Driver\src\stm32f10x_fsmc.o
 .text.FSMC_ClearFlag
                0x00000000       0x5c Libraries\STM32F10x_StdPeriph_Driver\src\stm32f10x_fsmc.o
 .text.FSMC_GetITStatus
                0x00000000       0x80 Libraries\STM32F10x_StdPeriph_Driver\src\stm32f10x_fsmc.o
 .text.FSMC_ClearITPendingBit
                0x00000000       0x64 Libraries\STM32F10x_StdPeriph_Driver\src\stm32f10x_fsmc.o
 .debug_info    0x00000000      0x900 Libraries\STM32F10x_StdPeriph_Driver\src\stm32f10x_fsmc.o
 .debug_abbrev  0x00000000      0x174 Libraries\STM32F10x_StdPeriph_Driver\src\stm32f10x_fsmc.o
 .debug_aranges
                0x00000000       0xb0 Libraries\STM32F10x_StdPeriph_Driver\src\stm32f10x_fsmc.o
 .debug_ranges  0x00000000       0xa0 Libraries\STM32F10x_StdPeriph_Driver\src\stm32f10x_fsmc.o
 .debug_line    0x00000000      0x4e3 Libraries\STM32F10x_StdPeriph_Driver\src\stm32f10x_fsmc.o
 .debug_str     0x00000000      0x7be Libraries\STM32F10x_StdPeriph_Driver\src\stm32f10x_fsmc.o
 .comment       0x00000000       0x7f Libraries\STM32F10x_StdPeriph_Driver\src\stm32f10x_fsmc.o
 .debug_frame   0x00000000      0x300 Libraries\STM32F10x_StdPeriph_Driver\src\stm32f10x_fsmc.o
 .ARM.attributes
                0x00000000       0x33 Libraries\STM32F10x_StdPeriph_Driver\src\stm32f10x_fsmc.o
 .text          0x00000000        0x0 Libraries\STM32F10x_StdPeriph_Driver\src\stm32f10x_gpio.o
 .data          0x00000000        0x0 Libraries\STM32F10x_StdPeriph_Driver\src\stm32f10x_gpio.o
 .bss           0x00000000        0x0 Libraries\STM32F10x_StdPeriph_Driver\src\stm32f10x_gpio.o
 .text.GPIO_DeInit
                0x00000000       0xe4 Libraries\STM32F10x_StdPeriph_Driver\src\stm32f10x_gpio.o
 .text.GPIO_AFIODeInit
                0x00000000       0x18 Libraries\STM32F10x_StdPeriph_Driver\src\stm32f10x_gpio.o
 .text.GPIO_StructInit
                0x00000000       0x28 Libraries\STM32F10x_StdPeriph_Driver\src\stm32f10x_gpio.o
 .text.GPIO_ReadInputData
                0x00000000       0x18 Libraries\STM32F10x_StdPeriph_Driver\src\stm32f10x_gpio.o
 .text.GPIO_ReadOutputData
                0x00000000       0x18 Libraries\STM32F10x_StdPeriph_Driver\src\stm32f10x_gpio.o
 .text.GPIO_WriteBit
                0x00000000       0x30 Libraries\STM32F10x_StdPeriph_Driver\src\stm32f10x_gpio.o
 .text.GPIO_Write
                0x00000000       0x1c Libraries\STM32F10x_StdPeriph_Driver\src\stm32f10x_gpio.o
 .text.GPIO_PinLockConfig
                0x00000000       0x44 Libraries\STM32F10x_StdPeriph_Driver\src\stm32f10x_gpio.o
 .text.GPIO_EventOutputConfig
                0x00000000       0x4c Libraries\STM32F10x_StdPeriph_Driver\src\stm32f10x_gpio.o
 .text.GPIO_EventOutputCmd
                0x00000000       0x20 Libraries\STM32F10x_StdPeriph_Driver\src\stm32f10x_gpio.o
 .text.GPIO_PinRemapConfig
                0x00000000       0xe0 Libraries\STM32F10x_StdPeriph_Driver\src\stm32f10x_gpio.o
 .text.GPIO_ETH_MediaInterfaceConfig
                0x00000000       0x1c Libraries\STM32F10x_StdPeriph_Driver\src\stm32f10x_gpio.o
 .text          0x00000000        0x0 Libraries\STM32F10x_StdPeriph_Driver\src\stm32f10x_i2c.o
 .data          0x00000000        0x0 Libraries\STM32F10x_StdPeriph_Driver\src\stm32f10x_i2c.o
 .bss           0x00000000        0x0 Libraries\STM32F10x_StdPeriph_Driver\src\stm32f10x_i2c.o
 .text.I2C_DeInit
                0x00000000       0x48 Libraries\STM32F10x_StdPeriph_Driver\src\stm32f10x_i2c.o
 .text.I2C_StructInit
                0x00000000       0x3c Libraries\STM32F10x_StdPeriph_Driver\src\stm32f10x_i2c.o
 .text.I2C_OwnAddress2Config
                0x00000000       0x44 Libraries\STM32F10x_StdPeriph_Driver\src\stm32f10x_i2c.o
 .text.I2C_DualAddressCmd
                0x00000000       0x40 Libraries\STM32F10x_StdPeriph_Driver\src\stm32f10x_i2c.o
 .text.I2C_GeneralCallCmd
                0x00000000       0x40 Libraries\STM32F10x_StdPeriph_Driver\src\stm32f10x_i2c.o
 .text.I2C_ITConfig
                0x00000000       0x48 Libraries\STM32F10x_StdPeriph_Driver\src\stm32f10x_i2c.o
 .text.I2C_ReadRegister
                0x00000000       0x2c Libraries\STM32F10x_StdPeriph_Driver\src\stm32f10x_i2c.o
 .text.I2C_SoftwareResetCmd
                0x00000000       0x44 Libraries\STM32F10x_StdPeriph_Driver\src\stm32f10x_i2c.o
 .text.I2C_NACKPositionConfig
                0x00000000       0x40 Libraries\STM32F10x_StdPeriph_Driver\src\stm32f10x_i2c.o
 .text.I2C_SMBusAlertConfig
                0x00000000       0x40 Libraries\STM32F10x_StdPeriph_Driver\src\stm32f10x_i2c.o
 .text.I2C_TransmitPEC
                0x00000000       0x40 Libraries\STM32F10x_StdPeriph_Driver\src\stm32f10x_i2c.o
 .text.I2C_PECPositionConfig
                0x00000000       0x40 Libraries\STM32F10x_StdPeriph_Driver\src\stm32f10x_i2c.o
 .text.I2C_CalculatePEC
                0x00000000       0x40 Libraries\STM32F10x_StdPeriph_Driver\src\stm32f10x_i2c.o
 .text.I2C_GetPEC
                0x00000000       0x20 Libraries\STM32F10x_StdPeriph_Driver\src\stm32f10x_i2c.o
 .text.I2C_ARPCmd
                0x00000000       0x40 Libraries\STM32F10x_StdPeriph_Driver\src\stm32f10x_i2c.o
 .text.I2C_StretchClockCmd
                0x00000000       0x40 Libraries\STM32F10x_StdPeriph_Driver\src\stm32f10x_i2c.o
 .text.I2C_FastModeDutyCycleConfig
                0x00000000       0x40 Libraries\STM32F10x_StdPeriph_Driver\src\stm32f10x_i2c.o
 .text.I2C_GetLastEvent
                0x00000000       0x44 Libraries\STM32F10x_StdPeriph_Driver\src\stm32f10x_i2c.o
 .text.I2C_GetITStatus
                0x00000000       0x58 Libraries\STM32F10x_StdPeriph_Driver\src\stm32f10x_i2c.o
 .text.I2C_ClearITPendingBit
                0x00000000       0x2c Libraries\STM32F10x_StdPeriph_Driver\src\stm32f10x_i2c.o
 .text          0x00000000        0x0 Libraries\STM32F10x_StdPeriph_Driver\src\stm32f10x_iwdg.o
 .data          0x00000000        0x0 Libraries\STM32F10x_StdPeriph_Driver\src\stm32f10x_iwdg.o
 .bss           0x00000000        0x0 Libraries\STM32F10x_StdPeriph_Driver\src\stm32f10x_iwdg.o
 .text.IWDG_WriteAccessCmd
                0x00000000       0x20 Libraries\STM32F10x_StdPeriph_Driver\src\stm32f10x_iwdg.o
 .text.IWDG_SetPrescaler
                0x00000000       0x20 Libraries\STM32F10x_StdPeriph_Driver\src\stm32f10x_iwdg.o
 .text.IWDG_SetReload
                0x00000000       0x20 Libraries\STM32F10x_StdPeriph_Driver\src\stm32f10x_iwdg.o
 .text.IWDG_ReloadCounter
                0x00000000       0x18 Libraries\STM32F10x_StdPeriph_Driver\src\stm32f10x_iwdg.o
 .text.IWDG_Enable
                0x00000000       0x18 Libraries\STM32F10x_StdPeriph_Driver\src\stm32f10x_iwdg.o
 .text.IWDG_GetFlagStatus
                0x00000000       0x34 Libraries\STM32F10x_StdPeriph_Driver\src\stm32f10x_iwdg.o
 .debug_info    0x00000000      0x212 Libraries\STM32F10x_StdPeriph_Driver\src\stm32f10x_iwdg.o
 .debug_abbrev  0x00000000      0x105 Libraries\STM32F10x_StdPeriph_Driver\src\stm32f10x_iwdg.o
 .debug_aranges
                0x00000000       0x48 Libraries\STM32F10x_StdPeriph_Driver\src\stm32f10x_iwdg.o
 .debug_ranges  0x00000000       0x38 Libraries\STM32F10x_StdPeriph_Driver\src\stm32f10x_iwdg.o
 .debug_line    0x00000000      0x24f Libraries\STM32F10x_StdPeriph_Driver\src\stm32f10x_iwdg.o
 .debug_str     0x00000000      0x2a0 Libraries\STM32F10x_StdPeriph_Driver\src\stm32f10x_iwdg.o
 .comment       0x00000000       0x7f Libraries\STM32F10x_StdPeriph_Driver\src\stm32f10x_iwdg.o
 .debug_frame   0x00000000       0xf0 Libraries\STM32F10x_StdPeriph_Driver\src\stm32f10x_iwdg.o
 .ARM.attributes
                0x00000000       0x33 Libraries\STM32F10x_StdPeriph_Driver\src\stm32f10x_iwdg.o
 .text          0x00000000        0x0 Libraries\STM32F10x_StdPeriph_Driver\src\stm32f10x_pwr.o
 .data          0x00000000        0x0 Libraries\STM32F10x_StdPeriph_Driver\src\stm32f10x_pwr.o
 .bss           0x00000000        0x0 Libraries\STM32F10x_StdPeriph_Driver\src\stm32f10x_pwr.o
 .text.PWR_DeInit
                0x00000000       0x1c Libraries\STM32F10x_StdPeriph_Driver\src\stm32f10x_pwr.o
 .text.PWR_WakeUpPinCmd
                0x00000000       0x20 Libraries\STM32F10x_StdPeriph_Driver\src\stm32f10x_pwr.o
 .text.PWR_EnterSTOPMode
                0x00000000       0x64 Libraries\STM32F10x_StdPeriph_Driver\src\stm32f10x_pwr.o
 .text.PWR_EnterSTANDBYMode
                0x00000000       0x3c Libraries\STM32F10x_StdPeriph_Driver\src\stm32f10x_pwr.o
 .text.PWR_GetFlagStatus
                0x00000000       0x34 Libraries\STM32F10x_StdPeriph_Driver\src\stm32f10x_pwr.o
 .text.PWR_ClearFlag
                0x00000000       0x24 Libraries\STM32F10x_StdPeriph_Driver\src\stm32f10x_pwr.o
 .text          0x00000000        0x0 Libraries\STM32F10x_StdPeriph_Driver\src\stm32f10x_rcc.o
 .data          0x00000000        0x0 Libraries\STM32F10x_StdPeriph_Driver\src\stm32f10x_rcc.o
 .bss           0x00000000        0x0 Libraries\STM32F10x_StdPeriph_Driver\src\stm32f10x_rcc.o
 .text.RCC_DeInit
                0x00000000       0x5c Libraries\STM32F10x_StdPeriph_Driver\src\stm32f10x_rcc.o
 .text.RCC_HSEConfig
                0x00000000       0x5c Libraries\STM32F10x_StdPeriph_Driver\src\stm32f10x_rcc.o
 .text.RCC_AdjustHSICalibrationValue
                0x00000000       0x3c Libraries\STM32F10x_StdPeriph_Driver\src\stm32f10x_rcc.o
 .text.RCC_HSICmd
                0x00000000       0x20 Libraries\STM32F10x_StdPeriph_Driver\src\stm32f10x_rcc.o
 .text.RCC_ITConfig
                0x00000000       0x4c Libraries\STM32F10x_StdPeriph_Driver\src\stm32f10x_rcc.o
 .text.RCC_USBCLKConfig
                0x00000000       0x1c Libraries\STM32F10x_StdPeriph_Driver\src\stm32f10x_rcc.o
 .text.RCC_ADCCLKConfig
                0x00000000       0x38 Libraries\STM32F10x_StdPeriph_Driver\src\stm32f10x_rcc.o
 .text.RCC_LSICmd
                0x00000000       0x20 Libraries\STM32F10x_StdPeriph_Driver\src\stm32f10x_rcc.o
 .text.RCC_APB2PeriphResetCmd
                0x00000000       0x3c Libraries\STM32F10x_StdPeriph_Driver\src\stm32f10x_rcc.o
 .text.RCC_APB1PeriphResetCmd
                0x00000000       0x3c Libraries\STM32F10x_StdPeriph_Driver\src\stm32f10x_rcc.o
 .text.RCC_ClockSecuritySystemCmd
                0x00000000       0x20 Libraries\STM32F10x_StdPeriph_Driver\src\stm32f10x_rcc.o
 .text.RCC_MCOConfig
                0x00000000       0x20 Libraries\STM32F10x_StdPeriph_Driver\src\stm32f10x_rcc.o
 .text.RCC_ClearFlag
                0x00000000       0x1c Libraries\STM32F10x_StdPeriph_Driver\src\stm32f10x_rcc.o
 .text.RCC_GetITStatus
                0x00000000       0x34 Libraries\STM32F10x_StdPeriph_Driver\src\stm32f10x_rcc.o
 .text.RCC_ClearITPendingBit
                0x00000000       0x20 Libraries\STM32F10x_StdPeriph_Driver\src\stm32f10x_rcc.o
 .text          0x00000000        0x0 Libraries\STM32F10x_StdPeriph_Driver\src\stm32f10x_rtc.o
 .data          0x00000000        0x0 Libraries\STM32F10x_StdPeriph_Driver\src\stm32f10x_rtc.o
 .bss           0x00000000        0x0 Libraries\STM32F10x_StdPeriph_Driver\src\stm32f10x_rtc.o
 .text.RTC_SetAlarm
                0x00000000       0x30 Libraries\STM32F10x_StdPeriph_Driver\src\stm32f10x_rtc.o
 .text.RTC_GetDivider
                0x00000000       0x38 Libraries\STM32F10x_StdPeriph_Driver\src\stm32f10x_rtc.o
 .text.RTC_WaitForSynchro
                0x00000000       0x30 Libraries\STM32F10x_StdPeriph_Driver\src\stm32f10x_rtc.o
 .text.RTC_GetFlagStatus
                0x00000000       0x38 Libraries\STM32F10x_StdPeriph_Driver\src\stm32f10x_rtc.o
 .text.RTC_ClearFlag
                0x00000000       0x2c Libraries\STM32F10x_StdPeriph_Driver\src\stm32f10x_rtc.o
 .text          0x00000000        0x0 Libraries\STM32F10x_StdPeriph_Driver\src\stm32f10x_sdio.o
 .data          0x00000000        0x0 Libraries\STM32F10x_StdPeriph_Driver\src\stm32f10x_sdio.o
 .bss           0x00000000        0x0 Libraries\STM32F10x_StdPeriph_Driver\src\stm32f10x_sdio.o
 .text.SDIO_DeInit
                0x00000000       0x4c Libraries\STM32F10x_StdPeriph_Driver\src\stm32f10x_sdio.o
 .text.SDIO_Init
                0x00000000       0x5c Libraries\STM32F10x_StdPeriph_Driver\src\stm32f10x_sdio.o
 .text.SDIO_StructInit
                0x00000000       0x38 Libraries\STM32F10x_StdPeriph_Driver\src\stm32f10x_sdio.o
 .text.SDIO_ClockCmd
                0x00000000       0x20 Libraries\STM32F10x_StdPeriph_Driver\src\stm32f10x_sdio.o
 .text.SDIO_SetPowerState
                0x00000000       0x1c Libraries\STM32F10x_StdPeriph_Driver\src\stm32f10x_sdio.o
 .text.SDIO_GetPowerState
                0x00000000       0x18 Libraries\STM32F10x_StdPeriph_Driver\src\stm32f10x_sdio.o
 .text.SDIO_ITConfig
                0x00000000       0x3c Libraries\STM32F10x_StdPeriph_Driver\src\stm32f10x_sdio.o
 .text.SDIO_DMACmd
                0x00000000       0x20 Libraries\STM32F10x_StdPeriph_Driver\src\stm32f10x_sdio.o
 .text.SDIO_SendCommand
                0x00000000       0x58 Libraries\STM32F10x_StdPeriph_Driver\src\stm32f10x_sdio.o
 .text.SDIO_CmdStructInit
                0x00000000       0x30 Libraries\STM32F10x_StdPeriph_Driver\src\stm32f10x_sdio.o
 .text.SDIO_GetCommandResponse
                0x00000000       0x18 Libraries\STM32F10x_StdPeriph_Driver\src\stm32f10x_sdio.o
 .text.SDIO_GetResponse
                0x00000000       0x28 Libraries\STM32F10x_StdPeriph_Driver\src\stm32f10x_sdio.o
 .text.SDIO_DataConfig
                0x00000000       0x5c Libraries\STM32F10x_StdPeriph_Driver\src\stm32f10x_sdio.o
 .text.SDIO_DataStructInit
                0x00000000       0x38 Libraries\STM32F10x_StdPeriph_Driver\src\stm32f10x_sdio.o
 .text.SDIO_GetDataCounter
                0x00000000       0x14 Libraries\STM32F10x_StdPeriph_Driver\src\stm32f10x_sdio.o
 .text.SDIO_ReadData
                0x00000000       0x18 Libraries\STM32F10x_StdPeriph_Driver\src\stm32f10x_sdio.o
 .text.SDIO_WriteData
                0x00000000       0x20 Libraries\STM32F10x_StdPeriph_Driver\src\stm32f10x_sdio.o
 .text.SDIO_GetFIFOCount
                0x00000000       0x14 Libraries\STM32F10x_StdPeriph_Driver\src\stm32f10x_sdio.o
 .text.SDIO_StartSDIOReadWait
                0x00000000       0x20 Libraries\STM32F10x_StdPeriph_Driver\src\stm32f10x_sdio.o
 .text.SDIO_StopSDIOReadWait
                0x00000000       0x20 Libraries\STM32F10x_StdPeriph_Driver\src\stm32f10x_sdio.o
 .text.SDIO_SetSDIOReadWaitMode
                0x00000000       0x1c Libraries\STM32F10x_StdPeriph_Driver\src\stm32f10x_sdio.o
 .text.SDIO_SetSDIOOperation
                0x00000000       0x20 Libraries\STM32F10x_StdPeriph_Driver\src\stm32f10x_sdio.o
 .text.SDIO_SendSDIOSuspendCmd
                0x00000000       0x20 Libraries\STM32F10x_StdPeriph_Driver\src\stm32f10x_sdio.o
 .text.SDIO_CommandCompletionCmd
                0x00000000       0x20 Libraries\STM32F10x_StdPeriph_Driver\src\stm32f10x_sdio.o
 .text.SDIO_CEATAITCmd
                0x00000000       0x2c Libraries\STM32F10x_StdPeriph_Driver\src\stm32f10x_sdio.o
 .text.SDIO_SendCEATACmd
                0x00000000       0x20 Libraries\STM32F10x_StdPeriph_Driver\src\stm32f10x_sdio.o
 .text.SDIO_GetFlagStatus
                0x00000000       0x34 Libraries\STM32F10x_StdPeriph_Driver\src\stm32f10x_sdio.o
 .text.SDIO_ClearFlag
                0x00000000       0x1c Libraries\STM32F10x_StdPeriph_Driver\src\stm32f10x_sdio.o
 .text.SDIO_GetITStatus
                0x00000000       0x34 Libraries\STM32F10x_StdPeriph_Driver\src\stm32f10x_sdio.o
 .text.SDIO_ClearITPendingBit
                0x00000000       0x1c Libraries\STM32F10x_StdPeriph_Driver\src\stm32f10x_sdio.o
 .debug_info    0x00000000      0x7f9 Libraries\STM32F10x_StdPeriph_Driver\src\stm32f10x_sdio.o
 .debug_abbrev  0x00000000      0x1b3 Libraries\STM32F10x_StdPeriph_Driver\src\stm32f10x_sdio.o
 .debug_aranges
                0x00000000      0x108 Libraries\STM32F10x_StdPeriph_Driver\src\stm32f10x_sdio.o
 .debug_ranges  0x00000000       0xf8 Libraries\STM32F10x_StdPeriph_Driver\src\stm32f10x_sdio.o
 .debug_line    0x00000000      0x49b Libraries\STM32F10x_StdPeriph_Driver\src\stm32f10x_sdio.o
 .debug_str     0x00000000      0x674 Libraries\STM32F10x_StdPeriph_Driver\src\stm32f10x_sdio.o
 .comment       0x00000000       0x7f Libraries\STM32F10x_StdPeriph_Driver\src\stm32f10x_sdio.o
 .debug_frame   0x00000000      0x490 Libraries\STM32F10x_StdPeriph_Driver\src\stm32f10x_sdio.o
 .ARM.attributes
                0x00000000       0x33 Libraries\STM32F10x_StdPeriph_Driver\src\stm32f10x_sdio.o
 .text          0x00000000        0x0 Libraries\STM32F10x_StdPeriph_Driver\src\stm32f10x_spi.o
 .data          0x00000000        0x0 Libraries\STM32F10x_StdPeriph_Driver\src\stm32f10x_spi.o
 .bss           0x00000000        0x0 Libraries\STM32F10x_StdPeriph_Driver\src\stm32f10x_spi.o
 .text.SPI_I2S_DeInit
                0x00000000       0x74 Libraries\STM32F10x_StdPeriph_Driver\src\stm32f10x_spi.o
 .text.SPI_Init
                0x00000000       0x88 Libraries\STM32F10x_StdPeriph_Driver\src\stm32f10x_spi.o
 .text.I2S_Init
                0x00000000      0x168 Libraries\STM32F10x_StdPeriph_Driver\src\stm32f10x_spi.o
 .text.SPI_StructInit
                0x00000000       0x48 Libraries\STM32F10x_StdPeriph_Driver\src\stm32f10x_spi.o
 .text.I2S_StructInit
                0x00000000       0x38 Libraries\STM32F10x_StdPeriph_Driver\src\stm32f10x_spi.o
 .text.SPI_Cmd  0x00000000       0x40 Libraries\STM32F10x_StdPeriph_Driver\src\stm32f10x_spi.o
 .text.I2S_Cmd  0x00000000       0x40 Libraries\STM32F10x_StdPeriph_Driver\src\stm32f10x_spi.o
 .text.SPI_I2S_ITConfig
                0x00000000       0x60 Libraries\STM32F10x_StdPeriph_Driver\src\stm32f10x_spi.o
 .text.SPI_I2S_DMACmd
                0x00000000       0x48 Libraries\STM32F10x_StdPeriph_Driver\src\stm32f10x_spi.o
 .text.SPI_I2S_SendData
                0x00000000       0x1c Libraries\STM32F10x_StdPeriph_Driver\src\stm32f10x_spi.o
 .text.SPI_I2S_ReceiveData
                0x00000000       0x18 Libraries\STM32F10x_StdPeriph_Driver\src\stm32f10x_spi.o
 .text.SPI_NSSInternalSoftwareConfig
                0x00000000       0x44 Libraries\STM32F10x_StdPeriph_Driver\src\stm32f10x_spi.o
 .text.SPI_SSOutputCmd
                0x00000000       0x40 Libraries\STM32F10x_StdPeriph_Driver\src\stm32f10x_spi.o
 .text.SPI_DataSizeConfig
                0x00000000       0x38 Libraries\STM32F10x_StdPeriph_Driver\src\stm32f10x_spi.o
 .text.SPI_TransmitCRC
                0x00000000       0x24 Libraries\STM32F10x_StdPeriph_Driver\src\stm32f10x_spi.o
 .text.SPI_CalculateCRC
                0x00000000       0x40 Libraries\STM32F10x_StdPeriph_Driver\src\stm32f10x_spi.o
 .text.SPI_GetCRC
                0x00000000       0x30 Libraries\STM32F10x_StdPeriph_Driver\src\stm32f10x_spi.o
 .text.SPI_GetCRCPolynomial
                0x00000000       0x18 Libraries\STM32F10x_StdPeriph_Driver\src\stm32f10x_spi.o
 .text.SPI_BiDirectionalLineConfig
                0x00000000       0x40 Libraries\STM32F10x_StdPeriph_Driver\src\stm32f10x_spi.o
 .text.SPI_I2S_GetFlagStatus
                0x00000000       0x38 Libraries\STM32F10x_StdPeriph_Driver\src\stm32f10x_spi.o
 .text.SPI_I2S_ClearFlag
                0x00000000       0x20 Libraries\STM32F10x_StdPeriph_Driver\src\stm32f10x_spi.o
 .text.SPI_I2S_GetITStatus
                0x00000000       0x74 Libraries\STM32F10x_StdPeriph_Driver\src\stm32f10x_spi.o
 .text.SPI_I2S_ClearITPendingBit
                0x00000000       0x34 Libraries\STM32F10x_StdPeriph_Driver\src\stm32f10x_spi.o
 .debug_info    0x00000000      0x8ff Libraries\STM32F10x_StdPeriph_Driver\src\stm32f10x_spi.o
 .debug_abbrev  0x00000000      0x182 Libraries\STM32F10x_StdPeriph_Driver\src\stm32f10x_spi.o
 .debug_aranges
                0x00000000       0xd0 Libraries\STM32F10x_StdPeriph_Driver\src\stm32f10x_spi.o
 .debug_ranges  0x00000000       0xc0 Libraries\STM32F10x_StdPeriph_Driver\src\stm32f10x_spi.o
 .debug_line    0x00000000      0x483 Libraries\STM32F10x_StdPeriph_Driver\src\stm32f10x_spi.o
 .debug_str     0x00000000      0x641 Libraries\STM32F10x_StdPeriph_Driver\src\stm32f10x_spi.o
 .comment       0x00000000       0x7f Libraries\STM32F10x_StdPeriph_Driver\src\stm32f10x_spi.o
 .debug_frame   0x00000000      0x3a0 Libraries\STM32F10x_StdPeriph_Driver\src\stm32f10x_spi.o
 .ARM.attributes
                0x00000000       0x33 Libraries\STM32F10x_StdPeriph_Driver\src\stm32f10x_spi.o
 .text          0x00000000        0x0 Libraries\STM32F10x_StdPeriph_Driver\src\stm32f10x_tim.o
 .data          0x00000000        0x0 Libraries\STM32F10x_StdPeriph_Driver\src\stm32f10x_tim.o
 .bss           0x00000000        0x0 Libraries\STM32F10x_StdPeriph_Driver\src\stm32f10x_tim.o
 .text.TIM_DeInit
                0x00000000      0x22c Libraries\STM32F10x_StdPeriph_Driver\src\stm32f10x_tim.o
 .text.TIM_OC1Init
                0x00000000      0x118 Libraries\STM32F10x_StdPeriph_Driver\src\stm32f10x_tim.o
 .text.TIM_OC2Init
                0x00000000      0x110 Libraries\STM32F10x_StdPeriph_Driver\src\stm32f10x_tim.o
 .text.TIM_OC3Init
                0x00000000      0x10c Libraries\STM32F10x_StdPeriph_Driver\src\stm32f10x_tim.o
 .text.TIM_OC4Init
                0x00000000       0xd0 Libraries\STM32F10x_StdPeriph_Driver\src\stm32f10x_tim.o
 .text.TIM_ICInit
                0x00000000       0xa8 Libraries\STM32F10x_StdPeriph_Driver\src\stm32f10x_tim.o
 .text.TIM_PWMIConfig
                0x00000000       0xb8 Libraries\STM32F10x_StdPeriph_Driver\src\stm32f10x_tim.o
 .text.TIM_BDTRConfig
                0x00000000       0x50 Libraries\STM32F10x_StdPeriph_Driver\src\stm32f10x_tim.o
 .text.TIM_OCStructInit
                0x00000000       0x44 Libraries\STM32F10x_StdPeriph_Driver\src\stm32f10x_tim.o
 .text.TIM_ICStructInit
                0x00000000       0x30 Libraries\STM32F10x_StdPeriph_Driver\src\stm32f10x_tim.o
 .text.TIM_BDTRStructInit
                0x00000000       0x3c Libraries\STM32F10x_StdPeriph_Driver\src\stm32f10x_tim.o
 .text.TIM_CtrlPWMOutputs
                0x00000000       0x4c Libraries\STM32F10x_StdPeriph_Driver\src\stm32f10x_tim.o
 .text.TIM_GenerateEvent
                0x00000000       0x1c Libraries\STM32F10x_StdPeriph_Driver\src\stm32f10x_tim.o
 .text.TIM_DMAConfig
                0x00000000       0x28 Libraries\STM32F10x_StdPeriph_Driver\src\stm32f10x_tim.o
 .text.TIM_DMACmd
                0x00000000       0x48 Libraries\STM32F10x_StdPeriph_Driver\src\stm32f10x_tim.o
 .text.TIM_InternalClockConfig
                0x00000000       0x24 Libraries\STM32F10x_StdPeriph_Driver\src\stm32f10x_tim.o
 .text.TIM_ITRxExternalClockConfig
                0x00000000       0x30 Libraries\STM32F10x_StdPeriph_Driver\src\stm32f10x_tim.o
 .text.TIM_TIxExternalClockConfig
                0x00000000       0x5c Libraries\STM32F10x_StdPeriph_Driver\src\stm32f10x_tim.o
 .text.TIM_ETRClockMode1Config
                0x00000000       0x60 Libraries\STM32F10x_StdPeriph_Driver\src\stm32f10x_tim.o
 .text.TIM_ETRClockMode2Config
                0x00000000       0x40 Libraries\STM32F10x_StdPeriph_Driver\src\stm32f10x_tim.o
 .text.TIM_ETRConfig
                0x00000000       0x54 Libraries\STM32F10x_StdPeriph_Driver\src\stm32f10x_tim.o
 .text.TIM_PrescalerConfig
                0x00000000       0x28 Libraries\STM32F10x_StdPeriph_Driver\src\stm32f10x_tim.o
 .text.TIM_CounterModeConfig
                0x00000000       0x38 Libraries\STM32F10x_StdPeriph_Driver\src\stm32f10x_tim.o
 .text.TIM_SelectInputTrigger
                0x00000000       0x38 Libraries\STM32F10x_StdPeriph_Driver\src\stm32f10x_tim.o
 .text.TIM_EncoderInterfaceConfig
                0x00000000       0x98 Libraries\STM32F10x_StdPeriph_Driver\src\stm32f10x_tim.o
 .text.TIM_ForcedOC1Config
                0x00000000       0x38 Libraries\STM32F10x_StdPeriph_Driver\src\stm32f10x_tim.o
 .text.TIM_ForcedOC2Config
                0x00000000       0x3c Libraries\STM32F10x_StdPeriph_Driver\src\stm32f10x_tim.o
 .text.TIM_ForcedOC3Config
                0x00000000       0x38 Libraries\STM32F10x_StdPeriph_Driver\src\stm32f10x_tim.o
 .text.TIM_ForcedOC4Config
                0x00000000       0x3c Libraries\STM32F10x_StdPeriph_Driver\src\stm32f10x_tim.o
 .text.TIM_ARRPreloadConfig
                0x00000000       0x40 Libraries\STM32F10x_StdPeriph_Driver\src\stm32f10x_tim.o
 .text.TIM_SelectCOM
                0x00000000       0x40 Libraries\STM32F10x_StdPeriph_Driver\src\stm32f10x_tim.o
 .text.TIM_SelectCCDMA
                0x00000000       0x40 Libraries\STM32F10x_StdPeriph_Driver\src\stm32f10x_tim.o
 .text.TIM_CCPreloadControl
                0x00000000       0x40 Libraries\STM32F10x_StdPeriph_Driver\src\stm32f10x_tim.o
 .text.TIM_OC1PreloadConfig
                0x00000000       0x38 Libraries\STM32F10x_StdPeriph_Driver\src\stm32f10x_tim.o
 .text.TIM_OC2PreloadConfig
                0x00000000       0x3c Libraries\STM32F10x_StdPeriph_Driver\src\stm32f10x_tim.o
 .text.TIM_OC3PreloadConfig
                0x00000000       0x38 Libraries\STM32F10x_StdPeriph_Driver\src\stm32f10x_tim.o
 .text.TIM_OC4PreloadConfig
                0x00000000       0x3c Libraries\STM32F10x_StdPeriph_Driver\src\stm32f10x_tim.o
 .text.TIM_OC1FastConfig
                0x00000000       0x38 Libraries\STM32F10x_StdPeriph_Driver\src\stm32f10x_tim.o
 .text.TIM_OC2FastConfig
                0x00000000       0x3c Libraries\STM32F10x_StdPeriph_Driver\src\stm32f10x_tim.o
 .text.TIM_OC3FastConfig
                0x00000000       0x38 Libraries\STM32F10x_StdPeriph_Driver\src\stm32f10x_tim.o
 .text.TIM_OC4FastConfig
                0x00000000       0x3c Libraries\STM32F10x_StdPeriph_Driver\src\stm32f10x_tim.o
 .text.TIM_ClearOC1Ref
                0x00000000       0x38 Libraries\STM32F10x_StdPeriph_Driver\src\stm32f10x_tim.o
 .text.TIM_ClearOC2Ref
                0x00000000       0x3c Libraries\STM32F10x_StdPeriph_Driver\src\stm32f10x_tim.o
 .text.TIM_ClearOC3Ref
                0x00000000       0x38 Libraries\STM32F10x_StdPeriph_Driver\src\stm32f10x_tim.o
 .text.TIM_ClearOC4Ref
                0x00000000       0x3c Libraries\STM32F10x_StdPeriph_Driver\src\stm32f10x_tim.o
 .text.TIM_OC1PolarityConfig
                0x00000000       0x38 Libraries\STM32F10x_StdPeriph_Driver\src\stm32f10x_tim.o
 .text.TIM_OC1NPolarityConfig
                0x00000000       0x38 Libraries\STM32F10x_StdPeriph_Driver\src\stm32f10x_tim.o
 .text.TIM_OC2PolarityConfig
                0x00000000       0x3c Libraries\STM32F10x_StdPeriph_Driver\src\stm32f10x_tim.o
 .text.TIM_OC2NPolarityConfig
                0x00000000       0x3c Libraries\STM32F10x_StdPeriph_Driver\src\stm32f10x_tim.o
 .text.TIM_OC3PolarityConfig
                0x00000000       0x3c Libraries\STM32F10x_StdPeriph_Driver\src\stm32f10x_tim.o
 .text.TIM_OC3NPolarityConfig
                0x00000000       0x3c Libraries\STM32F10x_StdPeriph_Driver\src\stm32f10x_tim.o
 .text.TIM_OC4PolarityConfig
                0x00000000       0x3c Libraries\STM32F10x_StdPeriph_Driver\src\stm32f10x_tim.o
 .text.TIM_CCxCmd
                0x00000000       0x58 Libraries\STM32F10x_StdPeriph_Driver\src\stm32f10x_tim.o
 .text.TIM_CCxNCmd
                0x00000000       0x58 Libraries\STM32F10x_StdPeriph_Driver\src\stm32f10x_tim.o
 .text.TIM_SelectOCxM
                0x00000000       0xac Libraries\STM32F10x_StdPeriph_Driver\src\stm32f10x_tim.o
 .text.TIM_UpdateDisableConfig
                0x00000000       0x40 Libraries\STM32F10x_StdPeriph_Driver\src\stm32f10x_tim.o
 .text.TIM_UpdateRequestConfig
                0x00000000       0x40 Libraries\STM32F10x_StdPeriph_Driver\src\stm32f10x_tim.o
 .text.TIM_SelectHallSensor
                0x00000000       0x40 Libraries\STM32F10x_StdPeriph_Driver\src\stm32f10x_tim.o
 .text.TIM_SelectOnePulseMode
                0x00000000       0x38 Libraries\STM32F10x_StdPeriph_Driver\src\stm32f10x_tim.o
 .text.TIM_SelectOutputTrigger
                0x00000000       0x38 Libraries\STM32F10x_StdPeriph_Driver\src\stm32f10x_tim.o
 .text.TIM_SelectSlaveMode
                0x00000000       0x38 Libraries\STM32F10x_StdPeriph_Driver\src\stm32f10x_tim.o
 .text.TIM_SelectMasterSlaveMode
                0x00000000       0x38 Libraries\STM32F10x_StdPeriph_Driver\src\stm32f10x_tim.o
 .text.TIM_SetAutoreload
                0x00000000       0x1c Libraries\STM32F10x_StdPeriph_Driver\src\stm32f10x_tim.o
 .text.TIM_SetCompare1
                0x00000000       0x1c Libraries\STM32F10x_StdPeriph_Driver\src\stm32f10x_tim.o
 .text.TIM_SetCompare2
                0x00000000       0x1c Libraries\STM32F10x_StdPeriph_Driver\src\stm32f10x_tim.o
 .text.TIM_SetCompare3
                0x00000000       0x1c Libraries\STM32F10x_StdPeriph_Driver\src\stm32f10x_tim.o
 .text.TIM_SetCompare4
                0x00000000       0x20 Libraries\STM32F10x_StdPeriph_Driver\src\stm32f10x_tim.o
 .text.TIM_SetIC1Prescaler
                0x00000000       0x38 Libraries\STM32F10x_StdPeriph_Driver\src\stm32f10x_tim.o
 .text.TIM_SetIC2Prescaler
                0x00000000       0x3c Libraries\STM32F10x_StdPeriph_Driver\src\stm32f10x_tim.o
 .text.TIM_SetIC3Prescaler
                0x00000000       0x38 Libraries\STM32F10x_StdPeriph_Driver\src\stm32f10x_tim.o
 .text.TIM_SetIC4Prescaler
                0x00000000       0x3c Libraries\STM32F10x_StdPeriph_Driver\src\stm32f10x_tim.o
 .text.TIM_SetClockDivision
                0x00000000       0x38 Libraries\STM32F10x_StdPeriph_Driver\src\stm32f10x_tim.o
 .text.TIM_GetCapture1
                0x00000000       0x18 Libraries\STM32F10x_StdPeriph_Driver\src\stm32f10x_tim.o
 .text.TIM_GetCapture2
                0x00000000       0x18 Libraries\STM32F10x_StdPeriph_Driver\src\stm32f10x_tim.o
 .text.TIM_GetCapture3
                0x00000000       0x18 Libraries\STM32F10x_StdPeriph_Driver\src\stm32f10x_tim.o
 .text.TIM_GetCapture4
                0x00000000       0x1c Libraries\STM32F10x_StdPeriph_Driver\src\stm32f10x_tim.o
 .text.TIM_GetCounter
                0x00000000       0x18 Libraries\STM32F10x_StdPeriph_Driver\src\stm32f10x_tim.o
 .text.TIM_GetPrescaler
                0x00000000       0x18 Libraries\STM32F10x_StdPeriph_Driver\src\stm32f10x_tim.o
 .text.TIM_GetFlagStatus
                0x00000000       0x38 Libraries\STM32F10x_StdPeriph_Driver\src\stm32f10x_tim.o
 .text.TIM_ClearFlag
                0x00000000       0x20 Libraries\STM32F10x_StdPeriph_Driver\src\stm32f10x_tim.o
 .text.TI1_Config
                0x00000000       0xe0 Libraries\STM32F10x_StdPeriph_Driver\src\stm32f10x_tim.o
 .text.TI2_Config
                0x00000000       0xf4 Libraries\STM32F10x_StdPeriph_Driver\src\stm32f10x_tim.o
 .text.TI3_Config
                0x00000000       0xec Libraries\STM32F10x_StdPeriph_Driver\src\stm32f10x_tim.o
 .text.TI4_Config
                0x00000000       0xf8 Libraries\STM32F10x_StdPeriph_Driver\src\stm32f10x_tim.o
 .text          0x00000000        0x0 Libraries\STM32F10x_StdPeriph_Driver\src\stm32f10x_usart.o
 .data          0x00000000        0x0 Libraries\STM32F10x_StdPeriph_Driver\src\stm32f10x_usart.o
 .bss           0x00000000        0x0 Libraries\STM32F10x_StdPeriph_Driver\src\stm32f10x_usart.o
 .text.USART_DeInit
                0x00000000       0xb8 Libraries\STM32F10x_StdPeriph_Driver\src\stm32f10x_usart.o
 .text.USART_StructInit
                0x00000000       0x38 Libraries\STM32F10x_StdPeriph_Driver\src\stm32f10x_usart.o
 .text.USART_ClockInit
                0x00000000       0x58 Libraries\STM32F10x_StdPeriph_Driver\src\stm32f10x_usart.o
 .text.USART_ClockStructInit
                0x00000000       0x2c Libraries\STM32F10x_StdPeriph_Driver\src\stm32f10x_usart.o
 .text.USART_DMACmd
                0x00000000       0x48 Libraries\STM32F10x_StdPeriph_Driver\src\stm32f10x_usart.o
 .text.USART_SetAddress
                0x00000000       0x38 Libraries\STM32F10x_StdPeriph_Driver\src\stm32f10x_usart.o
 .text.USART_WakeUpConfig
                0x00000000       0x38 Libraries\STM32F10x_StdPeriph_Driver\src\stm32f10x_usart.o
 .text.USART_ReceiverWakeUpCmd
                0x00000000       0x40 Libraries\STM32F10x_StdPeriph_Driver\src\stm32f10x_usart.o
 .text.USART_LINBreakDetectLengthConfig
                0x00000000       0x38 Libraries\STM32F10x_StdPeriph_Driver\src\stm32f10x_usart.o
 .text.USART_LINCmd
                0x00000000       0x40 Libraries\STM32F10x_StdPeriph_Driver\src\stm32f10x_usart.o
 .text.USART_SendBreak
                0x00000000       0x24 Libraries\STM32F10x_StdPeriph_Driver\src\stm32f10x_usart.o
 .text.USART_SetGuardTime
                0x00000000       0x3c Libraries\STM32F10x_StdPeriph_Driver\src\stm32f10x_usart.o
 .text.USART_SetPrescaler
                0x00000000       0x38 Libraries\STM32F10x_StdPeriph_Driver\src\stm32f10x_usart.o
 .text.USART_SmartCardCmd
                0x00000000       0x40 Libraries\STM32F10x_StdPeriph_Driver\src\stm32f10x_usart.o
 .text.USART_SmartCardNACKCmd
                0x00000000       0x40 Libraries\STM32F10x_StdPeriph_Driver\src\stm32f10x_usart.o
 .text.USART_HalfDuplexCmd
                0x00000000       0x40 Libraries\STM32F10x_StdPeriph_Driver\src\stm32f10x_usart.o
 .text.USART_OverSampling8Cmd
                0x00000000       0x44 Libraries\STM32F10x_StdPeriph_Driver\src\stm32f10x_usart.o
 .text.USART_OneBitMethodCmd
                0x00000000       0x40 Libraries\STM32F10x_StdPeriph_Driver\src\stm32f10x_usart.o
 .text.USART_IrDAConfig
                0x00000000       0x38 Libraries\STM32F10x_StdPeriph_Driver\src\stm32f10x_usart.o
 .text.USART_IrDACmd
                0x00000000       0x40 Libraries\STM32F10x_StdPeriph_Driver\src\stm32f10x_usart.o
 .text.USART_GetFlagStatus
                0x00000000       0x38 Libraries\STM32F10x_StdPeriph_Driver\src\stm32f10x_usart.o
 .text.USART_ClearFlag
                0x00000000       0x20 Libraries\STM32F10x_StdPeriph_Driver\src\stm32f10x_usart.o
 .text          0x00000000        0x0 Libraries\STM32F10x_StdPeriph_Driver\src\stm32f10x_wwdg.o
 .data          0x00000000        0x0 Libraries\STM32F10x_StdPeriph_Driver\src\stm32f10x_wwdg.o
 .bss           0x00000000        0x0 Libraries\STM32F10x_StdPeriph_Driver\src\stm32f10x_wwdg.o
 .text.WWDG_DeInit
                0x00000000       0x1c Libraries\STM32F10x_StdPeriph_Driver\src\stm32f10x_wwdg.o
 .text.WWDG_SetPrescaler
                0x00000000       0x34 Libraries\STM32F10x_StdPeriph_Driver\src\stm32f10x_wwdg.o
 .text.WWDG_SetWindowValue
                0x00000000       0x38 Libraries\STM32F10x_StdPeriph_Driver\src\stm32f10x_wwdg.o
 .text.WWDG_EnableIT
                0x00000000       0x18 Libraries\STM32F10x_StdPeriph_Driver\src\stm32f10x_wwdg.o
 .text.WWDG_SetCounter
                0x00000000       0x24 Libraries\STM32F10x_StdPeriph_Driver\src\stm32f10x_wwdg.o
 .text.WWDG_Enable
                0x00000000       0x24 Libraries\STM32F10x_StdPeriph_Driver\src\stm32f10x_wwdg.o
 .text.WWDG_GetFlagStatus
                0x00000000       0x18 Libraries\STM32F10x_StdPeriph_Driver\src\stm32f10x_wwdg.o
 .text.WWDG_ClearFlag
                0x00000000       0x18 Libraries\STM32F10x_StdPeriph_Driver\src\stm32f10x_wwdg.o
 .debug_info    0x00000000      0x23a Libraries\STM32F10x_StdPeriph_Driver\src\stm32f10x_wwdg.o
 .debug_abbrev  0x00000000      0x11b Libraries\STM32F10x_StdPeriph_Driver\src\stm32f10x_wwdg.o
 .debug_aranges
                0x00000000       0x58 Libraries\STM32F10x_StdPeriph_Driver\src\stm32f10x_wwdg.o
 .debug_ranges  0x00000000       0x48 Libraries\STM32F10x_StdPeriph_Driver\src\stm32f10x_wwdg.o
 .debug_line    0x00000000      0x276 Libraries\STM32F10x_StdPeriph_Driver\src\stm32f10x_wwdg.o
 .debug_str     0x00000000      0x2a1 Libraries\STM32F10x_StdPeriph_Driver\src\stm32f10x_wwdg.o
 .comment       0x00000000       0x7f Libraries\STM32F10x_StdPeriph_Driver\src\stm32f10x_wwdg.o
 .debug_frame   0x00000000      0x12c Libraries\STM32F10x_StdPeriph_Driver\src\stm32f10x_wwdg.o
 .ARM.attributes
                0x00000000       0x33 Libraries\STM32F10x_StdPeriph_Driver\src\stm32f10x_wwdg.o
 .text          0x00000000        0x0 src\main.o
 .data          0x00000000        0x0 src\main.o
 .bss           0x00000000        0x0 src\main.o
 .text.Simulation_data_BE
                0x00000000       0x54 src\main.o
 .text.ADCT_BGS_Factory_Reset
                0x00000000      0x168 src\main.o
 .text          0x00000000       0x14 src\startup_stm32f10x_md.o
 .data          0x00000000        0x0 src\startup_stm32f10x_md.o
 .bss           0x00000000        0x0 src\startup_stm32f10x_md.o
 .text          0x00000000        0x0 src\stm32f1xx_it.o
 .data          0x00000000        0x0 src\stm32f1xx_it.o
 .bss           0x00000000        0x0 src\stm32f1xx_it.o
 .text          0x00000000        0x0 src\system_stm32f10x.o
 .data          0x00000000        0x0 src\system_stm32f10x.o
 .bss           0x00000000        0x0 src\system_stm32f10x.o
 .data.AHBPrescTable
                0x00000000       0x10 src\system_stm32f10x.o
 .text.SystemCoreClockUpdate
                0x00000000       0xd8 src\system_stm32f10x.o
 .text          0x00000000        0x0 c:/program files (x86)/atollic/truestudio for arm 7.0.0/armtools/bin/../lib/gcc/arm-atollic-eabi/5.3.1/../../../../arm-atollic-eabi/lib/armv7-m\libc_nano.a(lib_a-init.o)
 .data          0x00000000        0x0 c:/program files (x86)/atollic/truestudio for arm 7.0.0/armtools/bin/../lib/gcc/arm-atollic-eabi/5.3.1/../../../../arm-atollic-eabi/lib/armv7-m\libc_nano.a(lib_a-init.o)
 .bss           0x00000000        0x0 c:/program files (x86)/atollic/truestudio for arm 7.0.0/armtools/bin/../lib/gcc/arm-atollic-eabi/5.3.1/../../../../arm-atollic-eabi/lib/armv7-m\libc_nano.a(lib_a-init.o)
 .text          0x00000000        0x0 c:/program files (x86)/atollic/truestudio for arm 7.0.0/armtools/bin/../lib/gcc/arm-atollic-eabi/5.3.1/../../../../arm-atollic-eabi/lib/armv7-m\libc_nano.a(lib_a-malloc.o)
 .data          0x00000000        0x0 c:/program files (x86)/atollic/truestudio for arm 7.0.0/armtools/bin/../lib/gcc/arm-atollic-eabi/5.3.1/../../../../arm-atollic-eabi/lib/armv7-m\libc_nano.a(lib_a-malloc.o)
 .bss           0x00000000        0x0 c:/program files (x86)/atollic/truestudio for arm 7.0.0/armtools/bin/../lib/gcc/arm-atollic-eabi/5.3.1/../../../../arm-atollic-eabi/lib/armv7-m\libc_nano.a(lib_a-malloc.o)
 .text.free     0x00000000       0x10 c:/program files (x86)/atollic/truestudio for arm 7.0.0/armtools/bin/../lib/gcc/arm-atollic-eabi/5.3.1/../../../../arm-atollic-eabi/lib/armv7-m\libc_nano.a(lib_a-malloc.o)
 .text          0x00000000        0x0 c:/program files (x86)/atollic/truestudio for arm 7.0.0/armtools/bin/../lib/gcc/arm-atollic-eabi/5.3.1/../../../../arm-atollic-eabi/lib/armv7-m\libc_nano.a(lib_a-memcpy-stub.o)
 .data          0x00000000        0x0 c:/program files (x86)/atollic/truestudio for arm 7.0.0/armtools/bin/../lib/gcc/arm-atollic-eabi/5.3.1/../../../../arm-atollic-eabi/lib/armv7-m\libc_nano.a(lib_a-memcpy-stub.o)
 .bss           0x00000000        0x0 c:/program files (x86)/atollic/truestudio for arm 7.0.0/armtools/bin/../lib/gcc/arm-atollic-eabi/5.3.1/../../../../arm-atollic-eabi/lib/armv7-m\libc_nano.a(lib_a-memcpy-stub.o)
 .text          0x00000000        0x0 c:/program files (x86)/atollic/truestudio for arm 7.0.0/armtools/bin/../lib/gcc/arm-atollic-eabi/5.3.1/../../../../arm-atollic-eabi/lib/armv7-m\libc_nano.a(lib_a-memset.o)
 .data          0x00000000        0x0 c:/program files (x86)/atollic/truestudio for arm 7.0.0/armtools/bin/../lib/gcc/arm-atollic-eabi/5.3.1/../../../../arm-atollic-eabi/lib/armv7-m\libc_nano.a(lib_a-memset.o)
 .bss           0x00000000        0x0 c:/program files (x86)/atollic/truestudio for arm 7.0.0/armtools/bin/../lib/gcc/arm-atollic-eabi/5.3.1/../../../../arm-atollic-eabi/lib/armv7-m\libc_nano.a(lib_a-memset.o)
 .text          0x00000000        0x0 c:/program files (x86)/atollic/truestudio for arm 7.0.0/armtools/bin/../lib/gcc/arm-atollic-eabi/5.3.1/../../../../arm-atollic-eabi/lib/armv7-m\libc_nano.a(lib_a-nano-freer.o)
 .data          0x00000000        0x0 c:/program files (x86)/atollic/truestudio for arm 7.0.0/armtools/bin/../lib/gcc/arm-atollic-eabi/5.3.1/../../../../arm-atollic-eabi/lib/armv7-m\libc_nano.a(lib_a-nano-freer.o)
 .bss           0x00000000        0x0 c:/program files (x86)/atollic/truestudio for arm 7.0.0/armtools/bin/../lib/gcc/arm-atollic-eabi/5.3.1/../../../../arm-atollic-eabi/lib/armv7-m\libc_nano.a(lib_a-nano-freer.o)
 .text          0x00000000        0x0 c:/program files (x86)/atollic/truestudio for arm 7.0.0/armtools/bin/../lib/gcc/arm-atollic-eabi/5.3.1/../../../../arm-atollic-eabi/lib/armv7-m\libc_nano.a(lib_a-nano-mallocr.o)
 .data          0x00000000        0x0 c:/program files (x86)/atollic/truestudio for arm 7.0.0/armtools/bin/../lib/gcc/arm-atollic-eabi/5.3.1/../../../../arm-atollic-eabi/lib/armv7-m\libc_nano.a(lib_a-nano-mallocr.o)
 .bss           0x00000000        0x0 c:/program files (x86)/atollic/truestudio for arm 7.0.0/armtools/bin/../lib/gcc/arm-atollic-eabi/5.3.1/../../../../arm-atollic-eabi/lib/armv7-m\libc_nano.a(lib_a-nano-mallocr.o)
 .text          0x00000000        0x0 c:/program files (x86)/atollic/truestudio for arm 7.0.0/armtools/bin/../lib/gcc/arm-atollic-eabi/5.3.1/../../../../arm-atollic-eabi/lib/armv7-m\libc_nano.a(lib_a-printf.o)
 .data          0x00000000        0x0 c:/program files (x86)/atollic/truestudio for arm 7.0.0/armtools/bin/../lib/gcc/arm-atollic-eabi/5.3.1/../../../../arm-atollic-eabi/lib/armv7-m\libc_nano.a(lib_a-printf.o)
 .bss           0x00000000        0x0 c:/program files (x86)/atollic/truestudio for arm 7.0.0/armtools/bin/../lib/gcc/arm-atollic-eabi/5.3.1/../../../../arm-atollic-eabi/lib/armv7-m\libc_nano.a(lib_a-printf.o)
 .text._printf_r
                0x00000000       0x28 c:/program files (x86)/atollic/truestudio for arm 7.0.0/armtools/bin/../lib/gcc/arm-atollic-eabi/5.3.1/../../../../arm-atollic-eabi/lib/armv7-m\libc_nano.a(lib_a-printf.o)
 .text          0x00000000        0x0 c:/program files (x86)/atollic/truestudio for arm 7.0.0/armtools/bin/../lib/gcc/arm-atollic-eabi/5.3.1/../../../../arm-atollic-eabi/lib/armv7-m\libc_nano.a(lib_a-sbrkr.o)
 .data          0x00000000        0x0 c:/program files (x86)/atollic/truestudio for arm 7.0.0/armtools/bin/../lib/gcc/arm-atollic-eabi/5.3.1/../../../../arm-atollic-eabi/lib/armv7-m\libc_nano.a(lib_a-sbrkr.o)
 .bss           0x00000000        0x0 c:/program files (x86)/atollic/truestudio for arm 7.0.0/armtools/bin/../lib/gcc/arm-atollic-eabi/5.3.1/../../../../arm-atollic-eabi/lib/armv7-m\libc_nano.a(lib_a-sbrkr.o)
 .text          0x00000000       0x10 c:/program files (x86)/atollic/truestudio for arm 7.0.0/armtools/bin/../lib/gcc/arm-atollic-eabi/5.3.1/../../../../arm-atollic-eabi/lib/armv7-m\libc_nano.a(lib_a-strlen.o)
 .data          0x00000000        0x0 c:/program files (x86)/atollic/truestudio for arm 7.0.0/armtools/bin/../lib/gcc/arm-atollic-eabi/5.3.1/../../../../arm-atollic-eabi/lib/armv7-m\libc_nano.a(lib_a-strlen.o)
 .bss           0x00000000        0x0 c:/program files (x86)/atollic/truestudio for arm 7.0.0/armtools/bin/../lib/gcc/arm-atollic-eabi/5.3.1/../../../../arm-atollic-eabi/lib/armv7-m\libc_nano.a(lib_a-strlen.o)
 .ARM.attributes
                0x00000000       0x17 c:/program files (x86)/atollic/truestudio for arm 7.0.0/armtools/bin/../lib/gcc/arm-atollic-eabi/5.3.1/../../../../arm-atollic-eabi/lib/armv7-m\libc_nano.a(lib_a-strlen.o)
 .text          0x00000000        0x0 c:/program files (x86)/atollic/truestudio for arm 7.0.0/armtools/bin/../lib/gcc/arm-atollic-eabi/5.3.1/../../../../arm-atollic-eabi/lib/armv7-m\libc_nano.a(lib_a-findfp.o)
 .data          0x00000000        0x0 c:/program files (x86)/atollic/truestudio for arm 7.0.0/armtools/bin/../lib/gcc/arm-atollic-eabi/5.3.1/../../../../arm-atollic-eabi/lib/armv7-m\libc_nano.a(lib_a-findfp.o)
 .bss           0x00000000        0x0 c:/program files (x86)/atollic/truestudio for arm 7.0.0/armtools/bin/../lib/gcc/arm-atollic-eabi/5.3.1/../../../../arm-atollic-eabi/lib/armv7-m\libc_nano.a(lib_a-findfp.o)
 .text.__fp_unlock
                0x00000000        0x4 c:/program files (x86)/atollic/truestudio for arm 7.0.0/armtools/bin/../lib/gcc/arm-atollic-eabi/5.3.1/../../../../arm-atollic-eabi/lib/armv7-m\libc_nano.a(lib_a-findfp.o)
 .text.__fp_lock
                0x00000000        0x4 c:/program files (x86)/atollic/truestudio for arm 7.0.0/armtools/bin/../lib/gcc/arm-atollic-eabi/5.3.1/../../../../arm-atollic-eabi/lib/armv7-m\libc_nano.a(lib_a-findfp.o)
 .text._cleanup
                0x00000000        0xc c:/program files (x86)/atollic/truestudio for arm 7.0.0/armtools/bin/../lib/gcc/arm-atollic-eabi/5.3.1/../../../../arm-atollic-eabi/lib/armv7-m\libc_nano.a(lib_a-findfp.o)
 .text.__sfp_lock_acquire
                0x00000000        0x2 c:/program files (x86)/atollic/truestudio for arm 7.0.0/armtools/bin/../lib/gcc/arm-atollic-eabi/5.3.1/../../../../arm-atollic-eabi/lib/armv7-m\libc_nano.a(lib_a-findfp.o)
 .text.__sfp_lock_release
                0x00000000        0x2 c:/program files (x86)/atollic/truestudio for arm 7.0.0/armtools/bin/../lib/gcc/arm-atollic-eabi/5.3.1/../../../../arm-atollic-eabi/lib/armv7-m\libc_nano.a(lib_a-findfp.o)
 .text.__sinit_lock_acquire
                0x00000000        0x2 c:/program files (x86)/atollic/truestudio for arm 7.0.0/armtools/bin/../lib/gcc/arm-atollic-eabi/5.3.1/../../../../arm-atollic-eabi/lib/armv7-m\libc_nano.a(lib_a-findfp.o)
 .text.__sinit_lock_release
                0x00000000        0x2 c:/program files (x86)/atollic/truestudio for arm 7.0.0/armtools/bin/../lib/gcc/arm-atollic-eabi/5.3.1/../../../../arm-atollic-eabi/lib/armv7-m\libc_nano.a(lib_a-findfp.o)
 .text.__fp_lock_all
                0x00000000       0x14 c:/program files (x86)/atollic/truestudio for arm 7.0.0/armtools/bin/../lib/gcc/arm-atollic-eabi/5.3.1/../../../../arm-atollic-eabi/lib/armv7-m\libc_nano.a(lib_a-findfp.o)
 .text.__fp_unlock_all
                0x00000000       0x14 c:/program files (x86)/atollic/truestudio for arm 7.0.0/armtools/bin/../lib/gcc/arm-atollic-eabi/5.3.1/../../../../arm-atollic-eabi/lib/armv7-m\libc_nano.a(lib_a-findfp.o)
 .text          0x00000000        0x0 c:/program files (x86)/atollic/truestudio for arm 7.0.0/armtools/bin/../lib/gcc/arm-atollic-eabi/5.3.1/../../../../arm-atollic-eabi/lib/armv7-m\libc_nano.a(lib_a-fwalk.o)
 .data          0x00000000        0x0 c:/program files (x86)/atollic/truestudio for arm 7.0.0/armtools/bin/../lib/gcc/arm-atollic-eabi/5.3.1/../../../../arm-atollic-eabi/lib/armv7-m\libc_nano.a(lib_a-fwalk.o)
 .bss           0x00000000        0x0 c:/program files (x86)/atollic/truestudio for arm 7.0.0/armtools/bin/../lib/gcc/arm-atollic-eabi/5.3.1/../../../../arm-atollic-eabi/lib/armv7-m\libc_nano.a(lib_a-fwalk.o)
 .text._fwalk   0x00000000       0x38 c:/program files (x86)/atollic/truestudio for arm 7.0.0/armtools/bin/../lib/gcc/arm-atollic-eabi/5.3.1/../../../../arm-atollic-eabi/lib/armv7-m\libc_nano.a(lib_a-fwalk.o)
 .text          0x00000000        0x0 c:/program files (x86)/atollic/truestudio for arm 7.0.0/armtools/bin/../lib/gcc/arm-atollic-eabi/5.3.1/../../../../arm-atollic-eabi/lib/armv7-m\libc_nano.a(lib_a-impure.o)
 .data          0x00000000        0x0 c:/program files (x86)/atollic/truestudio for arm 7.0.0/armtools/bin/../lib/gcc/arm-atollic-eabi/5.3.1/../../../../arm-atollic-eabi/lib/armv7-m\libc_nano.a(lib_a-impure.o)
 .bss           0x00000000        0x0 c:/program files (x86)/atollic/truestudio for arm 7.0.0/armtools/bin/../lib/gcc/arm-atollic-eabi/5.3.1/../../../../arm-atollic-eabi/lib/armv7-m\libc_nano.a(lib_a-impure.o)
 .text          0x00000000        0x0 c:/program files (x86)/atollic/truestudio for arm 7.0.0/armtools/bin/../lib/gcc/arm-atollic-eabi/5.3.1/../../../../arm-atollic-eabi/lib/armv7-m\libc_nano.a(lib_a-mlock.o)
 .data          0x00000000        0x0 c:/program files (x86)/atollic/truestudio for arm 7.0.0/armtools/bin/../lib/gcc/arm-atollic-eabi/5.3.1/../../../../arm-atollic-eabi/lib/armv7-m\libc_nano.a(lib_a-mlock.o)
 .bss           0x00000000        0x0 c:/program files (x86)/atollic/truestudio for arm 7.0.0/armtools/bin/../lib/gcc/arm-atollic-eabi/5.3.1/../../../../arm-atollic-eabi/lib/armv7-m\libc_nano.a(lib_a-mlock.o)
 .text          0x00000000        0x0 c:/program files (x86)/atollic/truestudio for arm 7.0.0/armtools/bin/../lib/gcc/arm-atollic-eabi/5.3.1/../../../../arm-atollic-eabi/lib/armv7-m\libc_nano.a(lib_a-nano-vfprintf.o)
 .data          0x00000000        0x0 c:/program files (x86)/atollic/truestudio for arm 7.0.0/armtools/bin/../lib/gcc/arm-atollic-eabi/5.3.1/../../../../arm-atollic-eabi/lib/armv7-m\libc_nano.a(lib_a-nano-vfprintf.o)
 .bss           0x00000000        0x0 c:/program files (x86)/atollic/truestudio for arm 7.0.0/armtools/bin/../lib/gcc/arm-atollic-eabi/5.3.1/../../../../arm-atollic-eabi/lib/armv7-m\libc_nano.a(lib_a-nano-vfprintf.o)
 .text.__sprint_r
                0x00000000       0x1a c:/program files (x86)/atollic/truestudio for arm 7.0.0/armtools/bin/../lib/gcc/arm-atollic-eabi/5.3.1/../../../../arm-atollic-eabi/lib/armv7-m\libc_nano.a(lib_a-nano-vfprintf.o)
 .text.vfprintf
                0x00000000       0x14 c:/program files (x86)/atollic/truestudio for arm 7.0.0/armtools/bin/../lib/gcc/arm-atollic-eabi/5.3.1/../../../../arm-atollic-eabi/lib/armv7-m\libc_nano.a(lib_a-nano-vfprintf.o)
 .text          0x00000000        0x0 c:/program files (x86)/atollic/truestudio for arm 7.0.0/armtools/bin/../lib/gcc/arm-atollic-eabi/5.3.1/../../../../arm-atollic-eabi/lib/armv7-m\libc_nano.a(lib_a-nano-vfprintf_i.o)
 .data          0x00000000        0x0 c:/program files (x86)/atollic/truestudio for arm 7.0.0/armtools/bin/../lib/gcc/arm-atollic-eabi/5.3.1/../../../../arm-atollic-eabi/lib/armv7-m\libc_nano.a(lib_a-nano-vfprintf_i.o)
 .bss           0x00000000        0x0 c:/program files (x86)/atollic/truestudio for arm 7.0.0/armtools/bin/../lib/gcc/arm-atollic-eabi/5.3.1/../../../../arm-atollic-eabi/lib/armv7-m\libc_nano.a(lib_a-nano-vfprintf_i.o)
 .text          0x00000000        0x0 c:/program files (x86)/atollic/truestudio for arm 7.0.0/armtools/bin/../lib/gcc/arm-atollic-eabi/5.3.1/../../../../arm-atollic-eabi/lib/armv7-m\libc_nano.a(lib_a-reent.o)
 .data          0x00000000        0x0 c:/program files (x86)/atollic/truestudio for arm 7.0.0/armtools/bin/../lib/gcc/arm-atollic-eabi/5.3.1/../../../../arm-atollic-eabi/lib/armv7-m\libc_nano.a(lib_a-reent.o)
 .bss           0x00000000        0x0 c:/program files (x86)/atollic/truestudio for arm 7.0.0/armtools/bin/../lib/gcc/arm-atollic-eabi/5.3.1/../../../../arm-atollic-eabi/lib/armv7-m\libc_nano.a(lib_a-reent.o)
 .text.cleanup_glue
                0x00000000       0x1a c:/program files (x86)/atollic/truestudio for arm 7.0.0/armtools/bin/../lib/gcc/arm-atollic-eabi/5.3.1/../../../../arm-atollic-eabi/lib/armv7-m\libc_nano.a(lib_a-reent.o)
 .text._reclaim_reent
                0x00000000       0xb4 c:/program files (x86)/atollic/truestudio for arm 7.0.0/armtools/bin/../lib/gcc/arm-atollic-eabi/5.3.1/../../../../arm-atollic-eabi/lib/armv7-m\libc_nano.a(lib_a-reent.o)
 .text          0x00000000        0x0 c:/program files (x86)/atollic/truestudio for arm 7.0.0/armtools/bin/../lib/gcc/arm-atollic-eabi/5.3.1/../../../../arm-atollic-eabi/lib/armv7-m\libc_nano.a(lib_a-stdio.o)
 .data          0x00000000        0x0 c:/program files (x86)/atollic/truestudio for arm 7.0.0/armtools/bin/../lib/gcc/arm-atollic-eabi/5.3.1/../../../../arm-atollic-eabi/lib/armv7-m\libc_nano.a(lib_a-stdio.o)
 .bss           0x00000000        0x0 c:/program files (x86)/atollic/truestudio for arm 7.0.0/armtools/bin/../lib/gcc/arm-atollic-eabi/5.3.1/../../../../arm-atollic-eabi/lib/armv7-m\libc_nano.a(lib_a-stdio.o)
 .text.__seofread
                0x00000000        0x4 c:/program files (x86)/atollic/truestudio for arm 7.0.0/armtools/bin/../lib/gcc/arm-atollic-eabi/5.3.1/../../../../arm-atollic-eabi/lib/armv7-m\libc_nano.a(lib_a-stdio.o)
 .text          0x00000000        0x0 c:/program files (x86)/atollic/truestudio for arm 7.0.0/armtools/bin/../lib/gcc/arm-atollic-eabi/5.3.1/../../../../arm-atollic-eabi/lib/armv7-m\libc_nano.a(lib_a-wbuf.o)
 .data          0x00000000        0x0 c:/program files (x86)/atollic/truestudio for arm 7.0.0/armtools/bin/../lib/gcc/arm-atollic-eabi/5.3.1/../../../../arm-atollic-eabi/lib/armv7-m\libc_nano.a(lib_a-wbuf.o)
 .bss           0x00000000        0x0 c:/program files (x86)/atollic/truestudio for arm 7.0.0/armtools/bin/../lib/gcc/arm-atollic-eabi/5.3.1/../../../../arm-atollic-eabi/lib/armv7-m\libc_nano.a(lib_a-wbuf.o)
 .text.__swbuf  0x00000000       0x10 c:/program files (x86)/atollic/truestudio for arm 7.0.0/armtools/bin/../lib/gcc/arm-atollic-eabi/5.3.1/../../../../arm-atollic-eabi/lib/armv7-m\libc_nano.a(lib_a-wbuf.o)
 .text          0x00000000        0x0 c:/program files (x86)/atollic/truestudio for arm 7.0.0/armtools/bin/../lib/gcc/arm-atollic-eabi/5.3.1/../../../../arm-atollic-eabi/lib/armv7-m\libc_nano.a(lib_a-writer.o)
 .data          0x00000000        0x0 c:/program files (x86)/atollic/truestudio for arm 7.0.0/armtools/bin/../lib/gcc/arm-atollic-eabi/5.3.1/../../../../arm-atollic-eabi/lib/armv7-m\libc_nano.a(lib_a-writer.o)
 .bss           0x00000000        0x0 c:/program files (x86)/atollic/truestudio for arm 7.0.0/armtools/bin/../lib/gcc/arm-atollic-eabi/5.3.1/../../../../arm-atollic-eabi/lib/armv7-m\libc_nano.a(lib_a-writer.o)
 .text          0x00000000        0x0 c:/program files (x86)/atollic/truestudio for arm 7.0.0/armtools/bin/../lib/gcc/arm-atollic-eabi/5.3.1/../../../../arm-atollic-eabi/lib/armv7-m\libc_nano.a(lib_a-wsetup.o)
 .data          0x00000000        0x0 c:/program files (x86)/atollic/truestudio for arm 7.0.0/armtools/bin/../lib/gcc/arm-atollic-eabi/5.3.1/../../../../arm-atollic-eabi/lib/armv7-m\libc_nano.a(lib_a-wsetup.o)
 .bss           0x00000000        0x0 c:/program files (x86)/atollic/truestudio for arm 7.0.0/armtools/bin/../lib/gcc/arm-atollic-eabi/5.3.1/../../../../arm-atollic-eabi/lib/armv7-m\libc_nano.a(lib_a-wsetup.o)
 .text          0x00000000        0x0 c:/program files (x86)/atollic/truestudio for arm 7.0.0/armtools/bin/../lib/gcc/arm-atollic-eabi/5.3.1/../../../../arm-atollic-eabi/lib/armv7-m\libc_nano.a(lib_a-closer.o)
 .data          0x00000000        0x0 c:/program files (x86)/atollic/truestudio for arm 7.0.0/armtools/bin/../lib/gcc/arm-atollic-eabi/5.3.1/../../../../arm-atollic-eabi/lib/armv7-m\libc_nano.a(lib_a-closer.o)
 .bss           0x00000000        0x0 c:/program files (x86)/atollic/truestudio for arm 7.0.0/armtools/bin/../lib/gcc/arm-atollic-eabi/5.3.1/../../../../arm-atollic-eabi/lib/armv7-m\libc_nano.a(lib_a-closer.o)
 .text          0x00000000        0x0 c:/program files (x86)/atollic/truestudio for arm 7.0.0/armtools/bin/../lib/gcc/arm-atollic-eabi/5.3.1/../../../../arm-atollic-eabi/lib/armv7-m\libc_nano.a(lib_a-fflush.o)
 .data          0x00000000        0x0 c:/program files (x86)/atollic/truestudio for arm 7.0.0/armtools/bin/../lib/gcc/arm-atollic-eabi/5.3.1/../../../../arm-atollic-eabi/lib/armv7-m\libc_nano.a(lib_a-fflush.o)
 .bss           0x00000000        0x0 c:/program files (x86)/atollic/truestudio for arm 7.0.0/armtools/bin/../lib/gcc/arm-atollic-eabi/5.3.1/../../../../arm-atollic-eabi/lib/armv7-m\libc_nano.a(lib_a-fflush.o)
 .text.fflush   0x00000000       0x24 c:/program files (x86)/atollic/truestudio for arm 7.0.0/armtools/bin/../lib/gcc/arm-atollic-eabi/5.3.1/../../../../arm-atollic-eabi/lib/armv7-m\libc_nano.a(lib_a-fflush.o)
 .text          0x00000000        0x0 c:/program files (x86)/atollic/truestudio for arm 7.0.0/armtools/bin/../lib/gcc/arm-atollic-eabi/5.3.1/../../../../arm-atollic-eabi/lib/armv7-m\libc_nano.a(lib_a-fvwrite.o)
 .data          0x00000000        0x0 c:/program files (x86)/atollic/truestudio for arm 7.0.0/armtools/bin/../lib/gcc/arm-atollic-eabi/5.3.1/../../../../arm-atollic-eabi/lib/armv7-m\libc_nano.a(lib_a-fvwrite.o)
 .bss           0x00000000        0x0 c:/program files (x86)/atollic/truestudio for arm 7.0.0/armtools/bin/../lib/gcc/arm-atollic-eabi/5.3.1/../../../../arm-atollic-eabi/lib/armv7-m\libc_nano.a(lib_a-fvwrite.o)
 .text.__sfvwrite_r
                0x00000000      0x294 c:/program files (x86)/atollic/truestudio for arm 7.0.0/armtools/bin/../lib/gcc/arm-atollic-eabi/5.3.1/../../../../arm-atollic-eabi/lib/armv7-m\libc_nano.a(lib_a-fvwrite.o)
 .debug_frame   0x00000000       0x3c c:/program files (x86)/atollic/truestudio for arm 7.0.0/armtools/bin/../lib/gcc/arm-atollic-eabi/5.3.1/../../../../arm-atollic-eabi/lib/armv7-m\libc_nano.a(lib_a-fvwrite.o)
 .ARM.attributes
                0x00000000       0x2d c:/program files (x86)/atollic/truestudio for arm 7.0.0/armtools/bin/../lib/gcc/arm-atollic-eabi/5.3.1/../../../../arm-atollic-eabi/lib/armv7-m\libc_nano.a(lib_a-fvwrite.o)
 .text          0x00000000        0x0 c:/program files (x86)/atollic/truestudio for arm 7.0.0/armtools/bin/../lib/gcc/arm-atollic-eabi/5.3.1/../../../../arm-atollic-eabi/lib/armv7-m\libc_nano.a(lib_a-lseekr.o)
 .data          0x00000000        0x0 c:/program files (x86)/atollic/truestudio for arm 7.0.0/armtools/bin/../lib/gcc/arm-atollic-eabi/5.3.1/../../../../arm-atollic-eabi/lib/armv7-m\libc_nano.a(lib_a-lseekr.o)
 .bss           0x00000000        0x0 c:/program files (x86)/atollic/truestudio for arm 7.0.0/armtools/bin/../lib/gcc/arm-atollic-eabi/5.3.1/../../../../arm-atollic-eabi/lib/armv7-m\libc_nano.a(lib_a-lseekr.o)
 .text          0x00000000        0x0 c:/program files (x86)/atollic/truestudio for arm 7.0.0/armtools/bin/../lib/gcc/arm-atollic-eabi/5.3.1/../../../../arm-atollic-eabi/lib/armv7-m\libc_nano.a(lib_a-makebuf.o)
 .data          0x00000000        0x0 c:/program files (x86)/atollic/truestudio for arm 7.0.0/armtools/bin/../lib/gcc/arm-atollic-eabi/5.3.1/../../../../arm-atollic-eabi/lib/armv7-m\libc_nano.a(lib_a-makebuf.o)
 .bss           0x00000000        0x0 c:/program files (x86)/atollic/truestudio for arm 7.0.0/armtools/bin/../lib/gcc/arm-atollic-eabi/5.3.1/../../../../arm-atollic-eabi/lib/armv7-m\libc_nano.a(lib_a-makebuf.o)
 .text          0x00000000        0x0 c:/program files (x86)/atollic/truestudio for arm 7.0.0/armtools/bin/../lib/gcc/arm-atollic-eabi/5.3.1/../../../../arm-atollic-eabi/lib/armv7-m\libc_nano.a(lib_a-memchr-stub.o)
 .data          0x00000000        0x0 c:/program files (x86)/atollic/truestudio for arm 7.0.0/armtools/bin/../lib/gcc/arm-atollic-eabi/5.3.1/../../../../arm-atollic-eabi/lib/armv7-m\libc_nano.a(lib_a-memchr-stub.o)
 .bss           0x00000000        0x0 c:/program files (x86)/atollic/truestudio for arm 7.0.0/armtools/bin/../lib/gcc/arm-atollic-eabi/5.3.1/../../../../arm-atollic-eabi/lib/armv7-m\libc_nano.a(lib_a-memchr-stub.o)
 .text          0x00000000        0x0 c:/program files (x86)/atollic/truestudio for arm 7.0.0/armtools/bin/../lib/gcc/arm-atollic-eabi/5.3.1/../../../../arm-atollic-eabi/lib/armv7-m\libc_nano.a(lib_a-memmove.o)
 .data          0x00000000        0x0 c:/program files (x86)/atollic/truestudio for arm 7.0.0/armtools/bin/../lib/gcc/arm-atollic-eabi/5.3.1/../../../../arm-atollic-eabi/lib/armv7-m\libc_nano.a(lib_a-memmove.o)
 .bss           0x00000000        0x0 c:/program files (x86)/atollic/truestudio for arm 7.0.0/armtools/bin/../lib/gcc/arm-atollic-eabi/5.3.1/../../../../arm-atollic-eabi/lib/armv7-m\libc_nano.a(lib_a-memmove.o)
 .text.memmove  0x00000000       0x36 c:/program files (x86)/atollic/truestudio for arm 7.0.0/armtools/bin/../lib/gcc/arm-atollic-eabi/5.3.1/../../../../arm-atollic-eabi/lib/armv7-m\libc_nano.a(lib_a-memmove.o)
 .debug_frame   0x00000000       0x28 c:/program files (x86)/atollic/truestudio for arm 7.0.0/armtools/bin/../lib/gcc/arm-atollic-eabi/5.3.1/../../../../arm-atollic-eabi/lib/armv7-m\libc_nano.a(lib_a-memmove.o)
 .ARM.attributes
                0x00000000       0x2d c:/program files (x86)/atollic/truestudio for arm 7.0.0/armtools/bin/../lib/gcc/arm-atollic-eabi/5.3.1/../../../../arm-atollic-eabi/lib/armv7-m\libc_nano.a(lib_a-memmove.o)
 .text          0x00000000        0x0 c:/program files (x86)/atollic/truestudio for arm 7.0.0/armtools/bin/../lib/gcc/arm-atollic-eabi/5.3.1/../../../../arm-atollic-eabi/lib/armv7-m\libc_nano.a(lib_a-nano-reallocr.o)
 .data          0x00000000        0x0 c:/program files (x86)/atollic/truestudio for arm 7.0.0/armtools/bin/../lib/gcc/arm-atollic-eabi/5.3.1/../../../../arm-atollic-eabi/lib/armv7-m\libc_nano.a(lib_a-nano-reallocr.o)
 .bss           0x00000000        0x0 c:/program files (x86)/atollic/truestudio for arm 7.0.0/armtools/bin/../lib/gcc/arm-atollic-eabi/5.3.1/../../../../arm-atollic-eabi/lib/armv7-m\libc_nano.a(lib_a-nano-reallocr.o)
 .text._realloc_r
                0x00000000       0x4c c:/program files (x86)/atollic/truestudio for arm 7.0.0/armtools/bin/../lib/gcc/arm-atollic-eabi/5.3.1/../../../../arm-atollic-eabi/lib/armv7-m\libc_nano.a(lib_a-nano-reallocr.o)
 .debug_frame   0x00000000       0x3c c:/program files (x86)/atollic/truestudio for arm 7.0.0/armtools/bin/../lib/gcc/arm-atollic-eabi/5.3.1/../../../../arm-atollic-eabi/lib/armv7-m\libc_nano.a(lib_a-nano-reallocr.o)
 .ARM.attributes
                0x00000000       0x2d c:/program files (x86)/atollic/truestudio for arm 7.0.0/armtools/bin/../lib/gcc/arm-atollic-eabi/5.3.1/../../../../arm-atollic-eabi/lib/armv7-m\libc_nano.a(lib_a-nano-reallocr.o)
 .text          0x00000000        0x0 c:/program files (x86)/atollic/truestudio for arm 7.0.0/armtools/bin/../lib/gcc/arm-atollic-eabi/5.3.1/../../../../arm-atollic-eabi/lib/armv7-m\libc_nano.a(lib_a-readr.o)
 .data          0x00000000        0x0 c:/program files (x86)/atollic/truestudio for arm 7.0.0/armtools/bin/../lib/gcc/arm-atollic-eabi/5.3.1/../../../../arm-atollic-eabi/lib/armv7-m\libc_nano.a(lib_a-readr.o)
 .bss           0x00000000        0x0 c:/program files (x86)/atollic/truestudio for arm 7.0.0/armtools/bin/../lib/gcc/arm-atollic-eabi/5.3.1/../../../../arm-atollic-eabi/lib/armv7-m\libc_nano.a(lib_a-readr.o)
 .text          0x00000000        0x0 c:/program files (x86)/atollic/truestudio for arm 7.0.0/armtools/bin/../lib/gcc/arm-atollic-eabi/5.3.1/../../../../arm-atollic-eabi/lib/armv7-m\libc_nano.a(lib_a-fstatr.o)
 .data          0x00000000        0x0 c:/program files (x86)/atollic/truestudio for arm 7.0.0/armtools/bin/../lib/gcc/arm-atollic-eabi/5.3.1/../../../../arm-atollic-eabi/lib/armv7-m\libc_nano.a(lib_a-fstatr.o)
 .bss           0x00000000        0x0 c:/program files (x86)/atollic/truestudio for arm 7.0.0/armtools/bin/../lib/gcc/arm-atollic-eabi/5.3.1/../../../../arm-atollic-eabi/lib/armv7-m\libc_nano.a(lib_a-fstatr.o)
 .text          0x00000000        0x0 c:/program files (x86)/atollic/truestudio for arm 7.0.0/armtools/bin/../lib/gcc/arm-atollic-eabi/5.3.1/../../../../arm-atollic-eabi/lib/armv7-m\libc_nano.a(lib_a-isattyr.o)
 .data          0x00000000        0x0 c:/program files (x86)/atollic/truestudio for arm 7.0.0/armtools/bin/../lib/gcc/arm-atollic-eabi/5.3.1/../../../../arm-atollic-eabi/lib/armv7-m\libc_nano.a(lib_a-isattyr.o)
 .bss           0x00000000        0x0 c:/program files (x86)/atollic/truestudio for arm 7.0.0/armtools/bin/../lib/gcc/arm-atollic-eabi/5.3.1/../../../../arm-atollic-eabi/lib/armv7-m\libc_nano.a(lib_a-isattyr.o)
 .text          0x00000000        0x0 c:/program files (x86)/atollic/truestudio for arm 7.0.0/armtools/bin/../lib/gcc/arm-atollic-eabi/5.3.1/../../../../arm-atollic-eabi/lib/armv7-m\libc_nano.a(lib_a-nano-msizer.o)
 .data          0x00000000        0x0 c:/program files (x86)/atollic/truestudio for arm 7.0.0/armtools/bin/../lib/gcc/arm-atollic-eabi/5.3.1/../../../../arm-atollic-eabi/lib/armv7-m\libc_nano.a(lib_a-nano-msizer.o)
 .bss           0x00000000        0x0 c:/program files (x86)/atollic/truestudio for arm 7.0.0/armtools/bin/../lib/gcc/arm-atollic-eabi/5.3.1/../../../../arm-atollic-eabi/lib/armv7-m\libc_nano.a(lib_a-nano-msizer.o)
 .text._malloc_usable_size_r
                0x00000000       0x14 c:/program files (x86)/atollic/truestudio for arm 7.0.0/armtools/bin/../lib/gcc/arm-atollic-eabi/5.3.1/../../../../arm-atollic-eabi/lib/armv7-m\libc_nano.a(lib_a-nano-msizer.o)
 .debug_frame   0x00000000       0x20 c:/program files (x86)/atollic/truestudio for arm 7.0.0/armtools/bin/../lib/gcc/arm-atollic-eabi/5.3.1/../../../../arm-atollic-eabi/lib/armv7-m\libc_nano.a(lib_a-nano-msizer.o)
 .ARM.attributes
                0x00000000       0x2d c:/program files (x86)/atollic/truestudio for arm 7.0.0/armtools/bin/../lib/gcc/arm-atollic-eabi/5.3.1/../../../../arm-atollic-eabi/lib/armv7-m\libc_nano.a(lib_a-nano-msizer.o)
 .data          0x00000000        0x0 c:/program files (x86)/atollic/truestudio for arm 7.0.0/armtools/bin/../lib/gcc/arm-atollic-eabi/5.3.1/armv7-m\libgcc.a(_arm_addsubdf3.o)
 .bss           0x00000000        0x0 c:/program files (x86)/atollic/truestudio for arm 7.0.0/armtools/bin/../lib/gcc/arm-atollic-eabi/5.3.1/armv7-m\libgcc.a(_arm_addsubdf3.o)
 .data          0x00000000        0x0 c:/program files (x86)/atollic/truestudio for arm 7.0.0/armtools/bin/../lib/gcc/arm-atollic-eabi/5.3.1/armv7-m\libgcc.a(_arm_muldivdf3.o)
 .bss           0x00000000        0x0 c:/program files (x86)/atollic/truestudio for arm 7.0.0/armtools/bin/../lib/gcc/arm-atollic-eabi/5.3.1/armv7-m\libgcc.a(_arm_muldivdf3.o)
 .data          0x00000000        0x0 c:/program files (x86)/atollic/truestudio for arm 7.0.0/armtools/bin/../lib/gcc/arm-atollic-eabi/5.3.1/armv7-m\libgcc.a(_arm_fixunsdfsi.o)
 .bss           0x00000000        0x0 c:/program files (x86)/atollic/truestudio for arm 7.0.0/armtools/bin/../lib/gcc/arm-atollic-eabi/5.3.1/armv7-m\libgcc.a(_arm_fixunsdfsi.o)
 .data          0x00000000        0x0 c:/program files (x86)/atollic/truestudio for arm 7.0.0/armtools/bin/../lib/gcc/arm-atollic-eabi/5.3.1/armv7-m\libgcc.a(_arm_truncdfsf2.o)
 .bss           0x00000000        0x0 c:/program files (x86)/atollic/truestudio for arm 7.0.0/armtools/bin/../lib/gcc/arm-atollic-eabi/5.3.1/armv7-m\libgcc.a(_arm_truncdfsf2.o)
 .data          0x00000000        0x0 c:/program files (x86)/atollic/truestudio for arm 7.0.0/armtools/bin/../lib/gcc/arm-atollic-eabi/5.3.1/armv7-m\libgcc.a(_arm_addsubsf3.o)
 .bss           0x00000000        0x0 c:/program files (x86)/atollic/truestudio for arm 7.0.0/armtools/bin/../lib/gcc/arm-atollic-eabi/5.3.1/armv7-m\libgcc.a(_arm_addsubsf3.o)
 .data          0x00000000        0x0 c:/program files (x86)/atollic/truestudio for arm 7.0.0/armtools/bin/../lib/gcc/arm-atollic-eabi/5.3.1/armv7-m\libgcc.a(_arm_muldivsf3.o)
 .bss           0x00000000        0x0 c:/program files (x86)/atollic/truestudio for arm 7.0.0/armtools/bin/../lib/gcc/arm-atollic-eabi/5.3.1/armv7-m\libgcc.a(_arm_muldivsf3.o)
 .data          0x00000000        0x0 c:/program files (x86)/atollic/truestudio for arm 7.0.0/armtools/bin/../lib/gcc/arm-atollic-eabi/5.3.1/armv7-m\libgcc.a(_arm_fixsfsi.o)
 .bss           0x00000000        0x0 c:/program files (x86)/atollic/truestudio for arm 7.0.0/armtools/bin/../lib/gcc/arm-atollic-eabi/5.3.1/armv7-m\libgcc.a(_arm_fixsfsi.o)
 .data          0x00000000        0x0 c:/program files (x86)/atollic/truestudio for arm 7.0.0/armtools/bin/../lib/gcc/arm-atollic-eabi/5.3.1/armv7-m\libgcc.a(_arm_fixunssfsi.o)
 .bss           0x00000000        0x0 c:/program files (x86)/atollic/truestudio for arm 7.0.0/armtools/bin/../lib/gcc/arm-atollic-eabi/5.3.1/armv7-m\libgcc.a(_arm_fixunssfsi.o)
 .text          0x00000000        0x0 c:/program files (x86)/atollic/truestudio for arm 7.0.0/armtools/bin/../lib/gcc/arm-atollic-eabi/5.3.1/../../../../arm-atollic-eabi/lib/armv7-m\libnosys.a(close.o)
 .data          0x00000000        0x0 c:/program files (x86)/atollic/truestudio for arm 7.0.0/armtools/bin/../lib/gcc/arm-atollic-eabi/5.3.1/../../../../arm-atollic-eabi/lib/armv7-m\libnosys.a(close.o)
 .bss           0x00000000        0x0 c:/program files (x86)/atollic/truestudio for arm 7.0.0/armtools/bin/../lib/gcc/arm-atollic-eabi/5.3.1/../../../../arm-atollic-eabi/lib/armv7-m\libnosys.a(close.o)
 .text          0x00000000        0x0 c:/program files (x86)/atollic/truestudio for arm 7.0.0/armtools/bin/../lib/gcc/arm-atollic-eabi/5.3.1/../../../../arm-atollic-eabi/lib/armv7-m\libnosys.a(fstat.o)
 .data          0x00000000        0x0 c:/program files (x86)/atollic/truestudio for arm 7.0.0/armtools/bin/../lib/gcc/arm-atollic-eabi/5.3.1/../../../../arm-atollic-eabi/lib/armv7-m\libnosys.a(fstat.o)
 .bss           0x00000000        0x0 c:/program files (x86)/atollic/truestudio for arm 7.0.0/armtools/bin/../lib/gcc/arm-atollic-eabi/5.3.1/../../../../arm-atollic-eabi/lib/armv7-m\libnosys.a(fstat.o)
 .text          0x00000000        0x0 c:/program files (x86)/atollic/truestudio for arm 7.0.0/armtools/bin/../lib/gcc/arm-atollic-eabi/5.3.1/../../../../arm-atollic-eabi/lib/armv7-m\libnosys.a(isatty.o)
 .data          0x00000000        0x0 c:/program files (x86)/atollic/truestudio for arm 7.0.0/armtools/bin/../lib/gcc/arm-atollic-eabi/5.3.1/../../../../arm-atollic-eabi/lib/armv7-m\libnosys.a(isatty.o)
 .bss           0x00000000        0x0 c:/program files (x86)/atollic/truestudio for arm 7.0.0/armtools/bin/../lib/gcc/arm-atollic-eabi/5.3.1/../../../../arm-atollic-eabi/lib/armv7-m\libnosys.a(isatty.o)
 .text          0x00000000        0x0 c:/program files (x86)/atollic/truestudio for arm 7.0.0/armtools/bin/../lib/gcc/arm-atollic-eabi/5.3.1/../../../../arm-atollic-eabi/lib/armv7-m\libnosys.a(lseek.o)
 .data          0x00000000        0x0 c:/program files (x86)/atollic/truestudio for arm 7.0.0/armtools/bin/../lib/gcc/arm-atollic-eabi/5.3.1/../../../../arm-atollic-eabi/lib/armv7-m\libnosys.a(lseek.o)
 .bss           0x00000000        0x0 c:/program files (x86)/atollic/truestudio for arm 7.0.0/armtools/bin/../lib/gcc/arm-atollic-eabi/5.3.1/../../../../arm-atollic-eabi/lib/armv7-m\libnosys.a(lseek.o)
 .text          0x00000000        0x0 c:/program files (x86)/atollic/truestudio for arm 7.0.0/armtools/bin/../lib/gcc/arm-atollic-eabi/5.3.1/../../../../arm-atollic-eabi/lib/armv7-m\libnosys.a(read.o)
 .data          0x00000000        0x0 c:/program files (x86)/atollic/truestudio for arm 7.0.0/armtools/bin/../lib/gcc/arm-atollic-eabi/5.3.1/../../../../arm-atollic-eabi/lib/armv7-m\libnosys.a(read.o)
 .bss           0x00000000        0x0 c:/program files (x86)/atollic/truestudio for arm 7.0.0/armtools/bin/../lib/gcc/arm-atollic-eabi/5.3.1/../../../../arm-atollic-eabi/lib/armv7-m\libnosys.a(read.o)
 .text          0x00000000        0x0 c:/program files (x86)/atollic/truestudio for arm 7.0.0/armtools/bin/../lib/gcc/arm-atollic-eabi/5.3.1/../../../../arm-atollic-eabi/lib/armv7-m\libnosys.a(sbrk.o)
 .data          0x00000000        0x0 c:/program files (x86)/atollic/truestudio for arm 7.0.0/armtools/bin/../lib/gcc/arm-atollic-eabi/5.3.1/../../../../arm-atollic-eabi/lib/armv7-m\libnosys.a(sbrk.o)
 .bss           0x00000000        0x0 c:/program files (x86)/atollic/truestudio for arm 7.0.0/armtools/bin/../lib/gcc/arm-atollic-eabi/5.3.1/../../../../arm-atollic-eabi/lib/armv7-m\libnosys.a(sbrk.o)
 .text          0x00000000        0x0 c:/program files (x86)/atollic/truestudio for arm 7.0.0/armtools/bin/../lib/gcc/arm-atollic-eabi/5.3.1/../../../../arm-atollic-eabi/lib/armv7-m\libnosys.a(write.o)
 .data          0x00000000        0x0 c:/program files (x86)/atollic/truestudio for arm 7.0.0/armtools/bin/../lib/gcc/arm-atollic-eabi/5.3.1/../../../../arm-atollic-eabi/lib/armv7-m\libnosys.a(write.o)
 .bss           0x00000000        0x0 c:/program files (x86)/atollic/truestudio for arm 7.0.0/armtools/bin/../lib/gcc/arm-atollic-eabi/5.3.1/../../../../arm-atollic-eabi/lib/armv7-m\libnosys.a(write.o)
 .text          0x00000000        0x0 c:/program files (x86)/atollic/truestudio for arm 7.0.0/armtools/bin/../lib/gcc/arm-atollic-eabi/5.3.1/armv7-m/crtend.o
 .data          0x00000000        0x0 c:/program files (x86)/atollic/truestudio for arm 7.0.0/armtools/bin/../lib/gcc/arm-atollic-eabi/5.3.1/armv7-m/crtend.o
 .bss           0x00000000        0x0 c:/program files (x86)/atollic/truestudio for arm 7.0.0/armtools/bin/../lib/gcc/arm-atollic-eabi/5.3.1/armv7-m/crtend.o
 .eh_frame      0x00000000        0x4 c:/program files (x86)/atollic/truestudio for arm 7.0.0/armtools/bin/../lib/gcc/arm-atollic-eabi/5.3.1/armv7-m/crtend.o
 .ARM.attributes
                0x00000000       0x2d c:/program files (x86)/atollic/truestudio for arm 7.0.0/armtools/bin/../lib/gcc/arm-atollic-eabi/5.3.1/armv7-m/crtend.o
 .text          0x00000000        0x0 c:/program files (x86)/atollic/truestudio for arm 7.0.0/armtools/bin/../lib/gcc/arm-atollic-eabi/5.3.1/armv7-m/crtn.o
 .data          0x00000000        0x0 c:/program files (x86)/atollic/truestudio for arm 7.0.0/armtools/bin/../lib/gcc/arm-atollic-eabi/5.3.1/armv7-m/crtn.o
 .bss           0x00000000        0x0 c:/program files (x86)/atollic/truestudio for arm 7.0.0/armtools/bin/../lib/gcc/arm-atollic-eabi/5.3.1/armv7-m/crtn.o

Memory Configuration

Name             Origin             Length             Attributes
FLASH            0x08000000         0x00020000         xr
RAM              0x20000000         0x00005000         xrw
MEMORY_B1        0x60000000         0x00000000         xr
*default*        0x00000000         0xffffffff

Linker script and memory map

LOAD c:/program files (x86)/atollic/truestudio for arm 7.0.0/armtools/bin/../lib/gcc/arm-atollic-eabi/5.3.1/armv7-m/crti.o
LOAD c:/program files (x86)/atollic/truestudio for arm 7.0.0/armtools/bin/../lib/gcc/arm-atollic-eabi/5.3.1/armv7-m/crtbegin.o
LOAD ASW_Task\src\ADCT_BGS_BSW_Task.o
LOAD Apps\src\ADCT_BGS_Bare_state.o
LOAD Apps\src\ADCT_BGS_Modbus.o
LOAD Apps\src\ADCT_BGS_State.o
LOAD Apps\src\ADCT_BGS_System.o
LOAD BSP\AM2302\src\ADCT_DHT22.o
LOAD BSP\AM2302\src\ADCT_DHT22_exti.o
LOAD BSP\AT24C64\src\ADCT_AT24C64.o
LOAD BSP\BUTTON\src\ADCT_BGS_BUTTON.o
LOAD BSP\BUTTON\src\tm_stm32_button.o
LOAD BSP\MODBUS\modbus\ascii\mbascii.o
LOAD BSP\MODBUS\modbus\functions\mbfunccoils.o
LOAD BSP\MODBUS\modbus\functions\mbfuncdiag.o
LOAD BSP\MODBUS\modbus\functions\mbfuncdisc.o
LOAD BSP\MODBUS\modbus\functions\mbfuncholding.o
LOAD BSP\MODBUS\modbus\functions\mbfuncinput.o
LOAD BSP\MODBUS\modbus\functions\mbfuncother.o
LOAD BSP\MODBUS\modbus\functions\mbutils.o
LOAD BSP\MODBUS\modbus\mb.o
LOAD BSP\MODBUS\modbus\rtu\mbcrc.o
LOAD BSP\MODBUS\modbus\rtu\mbrtu.o
LOAD BSP\MODBUS\modbus\tcp\mbtcp.o
LOAD BSP\MODBUS\port\portevent.o
LOAD BSP\MODBUS\port\portserial.o
LOAD BSP\MODBUS\port\porttimer.o
LOAD BSP\PZEM004T\src\PZEM004T.o
LOAD BSP\PZEM004T\src\fifo.o
LOAD BSP\PhSensor\src\ADCT_PhSensor.o
LOAD BSP\RELAY\src\ADCT_Relay.o
LOAD BSP\RTC\src\ADCT_RTC.o
LOAD BSP\SENSOR\src\ADCT_Sensor.o
LOAD BSP\delay\src\ADCT_BGS_FPT_Delay.o
LOAD Libraries\STM32F10x_StdPeriph_Driver\src\misc.o
LOAD Libraries\STM32F10x_StdPeriph_Driver\src\stm32f10x_adc.o
LOAD Libraries\STM32F10x_StdPeriph_Driver\src\stm32f10x_bkp.o
LOAD Libraries\STM32F10x_StdPeriph_Driver\src\stm32f10x_can.o
LOAD Libraries\STM32F10x_StdPeriph_Driver\src\stm32f10x_cec.o
LOAD Libraries\STM32F10x_StdPeriph_Driver\src\stm32f10x_crc.o
LOAD Libraries\STM32F10x_StdPeriph_Driver\src\stm32f10x_dac.o
LOAD Libraries\STM32F10x_StdPeriph_Driver\src\stm32f10x_dbgmcu.o
LOAD Libraries\STM32F10x_StdPeriph_Driver\src\stm32f10x_dma.o
LOAD Libraries\STM32F10x_StdPeriph_Driver\src\stm32f10x_exti.o
LOAD Libraries\STM32F10x_StdPeriph_Driver\src\stm32f10x_flash.o
LOAD Libraries\STM32F10x_StdPeriph_Driver\src\stm32f10x_fsmc.o
LOAD Libraries\STM32F10x_StdPeriph_Driver\src\stm32f10x_gpio.o
LOAD Libraries\STM32F10x_StdPeriph_Driver\src\stm32f10x_i2c.o
LOAD Libraries\STM32F10x_StdPeriph_Driver\src\stm32f10x_iwdg.o
LOAD Libraries\STM32F10x_StdPeriph_Driver\src\stm32f10x_pwr.o
LOAD Libraries\STM32F10x_StdPeriph_Driver\src\stm32f10x_rcc.o
LOAD Libraries\STM32F10x_StdPeriph_Driver\src\stm32f10x_rtc.o
LOAD Libraries\STM32F10x_StdPeriph_Driver\src\stm32f10x_sdio.o
LOAD Libraries\STM32F10x_StdPeriph_Driver\src\stm32f10x_spi.o
LOAD Libraries\STM32F10x_StdPeriph_Driver\src\stm32f10x_tim.o
LOAD Libraries\STM32F10x_StdPeriph_Driver\src\stm32f10x_usart.o
LOAD Libraries\STM32F10x_StdPeriph_Driver\src\stm32f10x_wwdg.o
LOAD src\main.o
LOAD src\startup_stm32f10x_md.o
LOAD src\stm32f1xx_it.o
LOAD src\system_stm32f10x.o
START GROUP
LOAD c:/program files (x86)/atollic/truestudio for arm 7.0.0/armtools/bin/../lib/gcc/arm-atollic-eabi/5.3.1/../../../../arm-atollic-eabi/lib/armv7-m\libc_nano.a
LOAD c:/program files (x86)/atollic/truestudio for arm 7.0.0/armtools/bin/../lib/gcc/arm-atollic-eabi/5.3.1/../../../../arm-atollic-eabi/lib/armv7-m\libm.a
END GROUP
                0x00000080                malloc_getpagesize_P = 0x80
START GROUP
LOAD c:/program files (x86)/atollic/truestudio for arm 7.0.0/armtools/bin/../lib/gcc/arm-atollic-eabi/5.3.1/armv7-m\libgcc.a
LOAD c:/program files (x86)/atollic/truestudio for arm 7.0.0/armtools/bin/../lib/gcc/arm-atollic-eabi/5.3.1/../../../../arm-atollic-eabi/lib/armv7-m\libc_nano.a
END GROUP
START GROUP
LOAD c:/program files (x86)/atollic/truestudio for arm 7.0.0/armtools/bin/../lib/gcc/arm-atollic-eabi/5.3.1/armv7-m\libgcc.a
LOAD c:/program files (x86)/atollic/truestudio for arm 7.0.0/armtools/bin/../lib/gcc/arm-atollic-eabi/5.3.1/../../../../arm-atollic-eabi/lib/armv7-m\libc_nano.a
LOAD c:/program files (x86)/atollic/truestudio for arm 7.0.0/armtools/bin/../lib/gcc/arm-atollic-eabi/5.3.1/../../../../arm-atollic-eabi/lib/armv7-m\libnosys.a
END GROUP
START GROUP
LOAD c:/program files (x86)/atollic/truestudio for arm 7.0.0/armtools/bin/../lib/gcc/arm-atollic-eabi/5.3.1/armv7-m\libgcc.a
LOAD c:/program files (x86)/atollic/truestudio for arm 7.0.0/armtools/bin/../lib/gcc/arm-atollic-eabi/5.3.1/../../../../arm-atollic-eabi/lib/armv7-m\libc_nano.a
LOAD c:/program files (x86)/atollic/truestudio for arm 7.0.0/armtools/bin/../lib/gcc/arm-atollic-eabi/5.3.1/../../../../arm-atollic-eabi/lib/armv7-m\libnosys.a
END GROUP
LOAD c:/program files (x86)/atollic/truestudio for arm 7.0.0/armtools/bin/../lib/gcc/arm-atollic-eabi/5.3.1/armv7-m/crtend.o
LOAD c:/program files (x86)/atollic/truestudio for arm 7.0.0/armtools/bin/../lib/gcc/arm-atollic-eabi/5.3.1/armv7-m/crtn.o
                0x20005000                _estack = 0x20005000
                0x00000000                _Min_Heap_Size = 0x0
                0x00000100                _Min_Stack_Size = 0x100

.isr_vector     0x08000000      0x10c
                0x08000000                . = ALIGN (0x4)
 *(.isr_vector)
 .isr_vector    0x08000000      0x10c src\startup_stm32f10x_md.o
                0x08000000                g_pfnVectors
                0x0800010c                . = ALIGN (0x4)

.text           0x08000110     0xa81c
                0x08000110                . = ALIGN (0x4)
 *(.text)
 .text          0x08000110       0x40 c:/program files (x86)/atollic/truestudio for arm 7.0.0/armtools/bin/../lib/gcc/arm-atollic-eabi/5.3.1/armv7-m/crtbegin.o
 .text          0x08000150      0x370 c:/program files (x86)/atollic/truestudio for arm 7.0.0/armtools/bin/../lib/gcc/arm-atollic-eabi/5.3.1/armv7-m\libgcc.a(_arm_addsubdf3.o)
                0x08000150                __aeabi_drsub
                0x08000158                __aeabi_dsub
                0x08000158                __subdf3
                0x0800015c                __aeabi_dadd
                0x0800015c                __adddf3
                0x080003d4                __floatunsidf
                0x080003d4                __aeabi_ui2d
                0x080003f4                __floatsidf
                0x080003f4                __aeabi_i2d
                0x08000418                __aeabi_f2d
                0x08000418                __extendsfdf2
                0x08000454                __floatundidf
                0x08000454                __aeabi_ul2d
                0x08000464                __floatdidf
                0x08000464                __aeabi_l2d
 .text          0x080004c0      0x424 c:/program files (x86)/atollic/truestudio for arm 7.0.0/armtools/bin/../lib/gcc/arm-atollic-eabi/5.3.1/armv7-m\libgcc.a(_arm_muldivdf3.o)
                0x080004c0                __aeabi_dmul
                0x080004c0                __muldf3
                0x08000714                __divdf3
                0x08000714                __aeabi_ddiv
 .text          0x080008e4       0x40 c:/program files (x86)/atollic/truestudio for arm 7.0.0/armtools/bin/../lib/gcc/arm-atollic-eabi/5.3.1/armv7-m\libgcc.a(_arm_fixunsdfsi.o)
                0x080008e4                __aeabi_d2uiz
                0x080008e4                __fixunsdfsi
 .text          0x08000924       0xa0 c:/program files (x86)/atollic/truestudio for arm 7.0.0/armtools/bin/../lib/gcc/arm-atollic-eabi/5.3.1/armv7-m\libgcc.a(_arm_truncdfsf2.o)
                0x08000924                __truncdfsf2
                0x08000924                __aeabi_d2f
 .text          0x080009c4      0x21c c:/program files (x86)/atollic/truestudio for arm 7.0.0/armtools/bin/../lib/gcc/arm-atollic-eabi/5.3.1/armv7-m\libgcc.a(_arm_addsubsf3.o)
                0x080009c4                __aeabi_frsub
                0x080009cc                __subsf3
                0x080009cc                __aeabi_fsub
                0x080009d0                __aeabi_fadd
                0x080009d0                __addsf3
                0x08000b30                __aeabi_ui2f
                0x08000b30                __floatunsisf
                0x08000b38                __aeabi_i2f
                0x08000b38                __floatsisf
                0x08000b54                __aeabi_ul2f
                0x08000b54                __floatundisf
                0x08000b64                __aeabi_l2f
                0x08000b64                __floatdisf
 .text          0x08000be0      0x2a0 c:/program files (x86)/atollic/truestudio for arm 7.0.0/armtools/bin/../lib/gcc/arm-atollic-eabi/5.3.1/armv7-m\libgcc.a(_arm_muldivsf3.o)
                0x08000be0                __mulsf3
                0x08000be0                __aeabi_fmul
                0x08000d48                __aeabi_fdiv
                0x08000d48                __divsf3
 .text          0x08000e80       0x4c c:/program files (x86)/atollic/truestudio for arm 7.0.0/armtools/bin/../lib/gcc/arm-atollic-eabi/5.3.1/armv7-m\libgcc.a(_arm_fixsfsi.o)
                0x08000e80                __aeabi_f2iz
                0x08000e80                __fixsfsi
 .text          0x08000ecc       0x40 c:/program files (x86)/atollic/truestudio for arm 7.0.0/armtools/bin/../lib/gcc/arm-atollic-eabi/5.3.1/armv7-m\libgcc.a(_arm_fixunssfsi.o)
                0x08000ecc                __fixunssfsi
                0x08000ecc                __aeabi_f2uiz
 *(.text*)
 .text.ADCT_BGS_ASW_100ms_TaskHandler
                0x08000f0c       0x30 ASW_Task\src\ADCT_BGS_BSW_Task.o
                0x08000f0c                ADCT_BGS_ASW_100ms_TaskHandler
 .text.ADCT_BGS_ASW_100ms_Init
                0x08000f3c       0x20 ASW_Task\src\ADCT_BGS_BSW_Task.o
                0x08000f3c                ADCT_BGS_ASW_100ms_Init
 .text.ADCT_BGS_ASW_10ms_TaskHandler
                0x08000f5c       0x20 ASW_Task\src\ADCT_BGS_BSW_Task.o
                0x08000f5c                ADCT_BGS_ASW_10ms_TaskHandler
 .text.ADCT_BGS_ASW_1ms_TaskHandler
                0x08000f7c       0x20 ASW_Task\src\ADCT_BGS_BSW_Task.o
                0x08000f7c                ADCT_BGS_ASW_1ms_TaskHandler
 .text.ADCT_BGS_ASW_1s_TaskHandler
                0x08000f9c       0x20 ASW_Task\src\ADCT_BGS_BSW_Task.o
                0x08000f9c                ADCT_BGS_ASW_1s_TaskHandler
 .text.ADCT_BGS_ASW_10ms_Init
                0x08000fbc       0x2c ASW_Task\src\ADCT_BGS_BSW_Task.o
                0x08000fbc                ADCT_BGS_ASW_10ms_Init
 .text.ADCT_BGS_ASW_1ms_Init
                0x08000fe8       0x2c ASW_Task\src\ADCT_BGS_BSW_Task.o
                0x08000fe8                ADCT_BGS_ASW_1ms_Init
 .text.ADCT_BGS_ASW_1s_Init
                0x08001014       0x2c ASW_Task\src\ADCT_BGS_BSW_Task.o
                0x08001014                ADCT_BGS_ASW_1s_Init
 .text.adct_bgs_choose_views
                0x08001040        0xc Apps\src\ADCT_BGS_Bare_state.o
                0x08001040                adct_bgs_choose_views
 .text.adct_bgs_enter_parameter
                0x0800104c        0xc Apps\src\ADCT_BGS_Bare_state.o
                0x0800104c                adct_bgs_enter_parameter
 .text.adct_bgs_choose_datalog
                0x08001058        0xc Apps\src\ADCT_BGS_Bare_state.o
                0x08001058                adct_bgs_choose_datalog
 .text.adct_bgs_runstate_idle
                0x08001064        0xc Apps\src\ADCT_BGS_Bare_state.o
                0x08001064                adct_bgs_runstate_idle
 .text.adct_bgs_runstate_alarm
                0x08001070        0xc Apps\src\ADCT_BGS_Bare_state.o
                0x08001070                adct_bgs_runstate_alarm
 .text.adct_bgs_view_datalog
                0x0800107c        0xc Apps\src\ADCT_BGS_Bare_state.o
                0x0800107c                adct_bgs_view_datalog
 .text.BUTTON_ENTER_Callback
                0x08001088       0x64 Apps\src\ADCT_BGS_Bare_state.o
                0x08001088                BUTTON_ENTER_Callback
 .text.BUTTON_CANCEL_Callback
                0x080010ec       0x68 Apps\src\ADCT_BGS_Bare_state.o
                0x080010ec                BUTTON_CANCEL_Callback
 .text.BUTTON_UP_Callback
                0x08001154       0x68 Apps\src\ADCT_BGS_Bare_state.o
                0x08001154                BUTTON_UP_Callback
 .text.BUTTON_DOWN_Callback
                0x080011bc       0x68 Apps\src\ADCT_BGS_Bare_state.o
                0x080011bc                BUTTON_DOWN_Callback
 .text.ADCT_BGS_MODBUS_RS485_Init
                0x08001224       0x30 Apps\src\ADCT_BGS_Modbus.o
                0x08001224                ADCT_BGS_MODBUS_RS485_Init
 .text.ADCT_BGS_MODBUS_RS485_UpdateHoldingReg
                0x08001254       0x28 Apps\src\ADCT_BGS_Modbus.o
 .text.ADCT_AC_MODBUS_UpdateData
                0x0800127c       0x9c Apps\src\ADCT_BGS_Modbus.o
 .text.ADCT_PH_MODBUS_UpdateData
                0x08001318       0x40 Apps\src\ADCT_BGS_Modbus.o
 .text.ADCT_BGS_MODBUS_RS485_UpdateData
                0x08001358      0x3a8 Apps\src\ADCT_BGS_Modbus.o
                0x08001358                ADCT_BGS_MODBUS_RS485_UpdateData
 .text.ADCT_BGS_MODBUS_Get_BE_DKG_Data
                0x08001700       0xb0 Apps\src\ADCT_BGS_Modbus.o
                0x08001700                ADCT_BGS_MODBUS_Get_BE_DKG_Data
 .text.ADCT_BGS_MODBUS_GetSetting
                0x080017b0      0x398 Apps\src\ADCT_BGS_Modbus.o
                0x080017b0                ADCT_BGS_MODBUS_GetSetting
 .text.eMBRegInputCB
                0x08001b48       0x1c Apps\src\ADCT_BGS_Modbus.o
                0x08001b48                eMBRegInputCB
 .text.eMBRegHoldingCB
                0x08001b64       0xf0 Apps\src\ADCT_BGS_Modbus.o
                0x08001b64                eMBRegHoldingCB
 .text.eMBRegCoilsCB
                0x08001c54       0x28 Apps\src\ADCT_BGS_Modbus.o
                0x08001c54                eMBRegCoilsCB
 .text.eMBRegDiscreteCB
                0x08001c7c       0x1c Apps\src\ADCT_BGS_Modbus.o
                0x08001c7c                eMBRegDiscreteCB
 .text.ADCT_BGS_StateManger
                0x08001c98       0xa0 Apps\src\ADCT_BGS_State.o
                0x08001c98                ADCT_BGS_StateManger
 .text.ADCT_BGS_GetCurrentRTCData
                0x08001d38       0x14 Apps\src\ADCT_BGS_State.o
                0x08001d38                ADCT_BGS_GetCurrentRTCData
 .text.ADCT_BGS_SwitchAIR_TimeCal
                0x08001d4c       0x98 Apps\src\ADCT_BGS_State.o
                0x08001d4c                ADCT_BGS_SwitchAIR_TimeCal
 .text.ADCT_BGS_CheckMinSwitchAIR1_2
                0x08001de4       0x5c Apps\src\ADCT_BGS_State.o
                0x08001de4                ADCT_BGS_CheckMinSwitchAIR1_2
 .text.ADCT_BGS_CheckMinSwitchAIR3_4
                0x08001e40       0x5c Apps\src\ADCT_BGS_State.o
                0x08001e40                ADCT_BGS_CheckMinSwitchAIR3_4
 .text.ADCT_BGS_CheckBuzzerTimerRun
                0x08001e9c       0x80 Apps\src\ADCT_BGS_State.o
                0x08001e9c                ADCT_BGS_CheckBuzzerTimerRun
 .text.ADCT_BGS_CheckDelayOfftime
                0x08001f1c       0x60 Apps\src\ADCT_BGS_State.o
                0x08001f1c                ADCT_BGS_CheckDelayOfftime
 .text.ADCT_BGS_CheckTminFan
                0x08001f7c       0x5c Apps\src\ADCT_BGS_State.o
                0x08001f7c                ADCT_BGS_CheckTminFan
 .text.ADCT_BGS_AlarmBuzzer
                0x08001fd8       0x64 Apps\src\ADCT_BGS_State.o
                0x08001fd8                ADCT_BGS_AlarmBuzzer
 .text.ADCT_IO_FPT_GetValue
                0x0800203c       0xfc Apps\src\ADCT_BGS_State.o
                0x0800203c                ADCT_IO_FPT_GetValue
 .text.ADCT_SYSTEM_FPT_CheckState_MODBUS
                0x08002138      0x294 Apps\src\ADCT_BGS_System.o
                0x08002138                ADCT_SYSTEM_FPT_CheckState_MODBUS
 .text.ADCT_SYSTEM_FPT_CheckState_IO
                0x080023cc      0x250 Apps\src\ADCT_BGS_System.o
                0x080023cc                ADCT_SYSTEM_FPT_CheckState_IO
 .text.ADCT_SYSTEM_FPT_CheckState_DHT
                0x0800261c      0x1d0 Apps\src\ADCT_BGS_System.o
                0x0800261c                ADCT_SYSTEM_FPT_CheckState_DHT
 .text.ADCT_SystemFPT_CheckAlarm
                0x080027ec       0xb0 Apps\src\ADCT_BGS_System.o
                0x080027ec                ADCT_SystemFPT_CheckAlarm
 .text.ADCT_SystemFPT_CheckAlarm_Siren
                0x0800289c       0x5c Apps\src\ADCT_BGS_System.o
                0x0800289c                ADCT_SystemFPT_CheckAlarm_Siren
 .text.ADCT_SystemFPT_RunOutput
                0x080028f8      0x8b4 Apps\src\ADCT_BGS_System.o
                0x080028f8                ADCT_SystemFPT_RunOutput
 .text.Delay    0x080031ac       0x48 BSP\AM2302\src\ADCT_DHT22.o
 .text.DHT22_Module_Init_Hardware
                0x080031f4       0x14 BSP\AM2302\src\ADCT_DHT22.o
                0x080031f4                DHT22_Module_Init_Hardware
 .text.ADCT_DHT22_FPT_GetValue
                0x08003208       0xa8 BSP\AM2302\src\ADCT_DHT22.o
                0x08003208                ADCT_DHT22_FPT_GetValue
 .text.ADCT_BGS_DHT22_PWR_Init
                0x080032b0       0x6c BSP\AM2302\src\ADCT_DHT22.o
                0x080032b0                ADCT_BGS_DHT22_PWR_Init
 .text.ADCT_BGS_DHT22Init
                0x0800331c       0x7c BSP\AM2302\src\ADCT_DHT22.o
                0x0800331c                ADCT_BGS_DHT22Init
 .text.ADCT_BGS_DHT22_01_CbkState
                0x08003398       0xb0 BSP\AM2302\src\ADCT_DHT22.o
 .text.ADCT_BGS_DHT22_02_CbkState
                0x08003448       0xbc BSP\AM2302\src\ADCT_DHT22.o
 .text.ADCT_BGS_DHT22_CheckCRC
                0x08003504       0x80 BSP\AM2302\src\ADCT_DHT22.o
                0x08003504                ADCT_BGS_DHT22_CheckCRC
 .text.ADCT_BGS_DHT22Start
                0x08003584      0x104 BSP\AM2302\src\ADCT_DHT22.o
                0x08003584                ADCT_BGS_DHT22Start
 .text.ADCT_BGS_DHT22Measuring
                0x08003688       0x20 BSP\AM2302\src\ADCT_DHT22.o
                0x08003688                ADCT_BGS_DHT22Measuring
 .text.ADCT_BGS_DHT22GetTemp
                0x080036a8       0x50 BSP\AM2302\src\ADCT_DHT22.o
                0x080036a8                ADCT_BGS_DHT22GetTemp
 .text.ADCT_BGS_DHT22GetHumidity
                0x080036f8       0x4c BSP\AM2302\src\ADCT_DHT22.o
                0x080036f8                ADCT_BGS_DHT22GetHumidity
 .text.vExtiInit
                0x08003744       0x18 BSP\AM2302\src\ADCT_DHT22_exti.o
                0x08003744                vExtiInit
 .text.vExtiAddCb
                0x0800375c       0x58 BSP\AM2302\src\ADCT_DHT22_exti.o
                0x0800375c                vExtiAddCb
 .text.vExtiStart
                0x080037b4      0x108 BSP\AM2302\src\ADCT_DHT22_exti.o
                0x080037b4                vExtiStart
 .text.vExtiHandleInt
                0x080038bc       0xd0 BSP\AM2302\src\ADCT_DHT22_exti.o
                0x080038bc                vExtiHandleInt
 .text.EXTI0_IRQHandler
                0x0800398c       0x20 BSP\AM2302\src\ADCT_DHT22_exti.o
                0x0800398c                EXTI0_IRQHandler
 .text.EXTI1_IRQHandler
                0x080039ac       0x20 BSP\AM2302\src\ADCT_DHT22_exti.o
                0x080039ac                EXTI1_IRQHandler
 .text.EXTI2_IRQHandler
                0x080039cc       0x20 BSP\AM2302\src\ADCT_DHT22_exti.o
                0x080039cc                EXTI2_IRQHandler
 .text.EXTI15_10_IRQHandler
                0x080039ec       0xc0 BSP\AM2302\src\ADCT_DHT22_exti.o
                0x080039ec                EXTI15_10_IRQHandler
 .text.EXTI9_5_IRQHandler
                0x08003aac       0x98 BSP\AM2302\src\ADCT_DHT22_exti.o
                0x08003aac                EXTI9_5_IRQHandler
 .text.EEPROM_LowLevel_Init
                0x08003b44      0x104 BSP\AT24C64\src\ADCT_AT24C64.o
                0x08003b44                EEPROM_LowLevel_Init
 .text.EEPROM_LowLevel_DMAConfig
                0x08003c48       0x5c BSP\AT24C64\src\ADCT_AT24C64.o
                0x08003c48                EEPROM_LowLevel_DMAConfig
 .text.EEPROM_Init
                0x08003ca4       0x5c BSP\AT24C64\src\ADCT_AT24C64.o
                0x08003ca4                EEPROM_Init
 .text.EEPROM_ReadBuffer
                0x08003d00      0x2d4 BSP\AT24C64\src\ADCT_AT24C64.o
                0x08003d00                EEPROM_ReadBuffer
 .text.EEPROM_WritePage
                0x08003fd4      0x17c BSP\AT24C64\src\ADCT_AT24C64.o
                0x08003fd4                EEPROM_WritePage
 .text.EEPROM_WriteBuffer
                0x08004150      0x334 BSP\AT24C64\src\ADCT_AT24C64.o
                0x08004150                EEPROM_WriteBuffer
 .text.EEPROM_WaitEepromStandbyState
                0x08004484      0x10c BSP\AT24C64\src\ADCT_AT24C64.o
                0x08004484                EEPROM_WaitEepromStandbyState
 .text.DMA1_Channel6_IRQHandler
                0x08004590       0x7c BSP\AT24C64\src\ADCT_AT24C64.o
                0x08004590                DMA1_Channel6_IRQHandler
 .text.DMA1_Channel7_IRQHandler
                0x0800460c       0x44 BSP\AT24C64\src\ADCT_AT24C64.o
                0x0800460c                DMA1_Channel7_IRQHandler
 .text.EEPROM_TIMEOUT_UserCallback
                0x08004650        0x8 BSP\AT24C64\src\ADCT_AT24C64.o
                0x08004650                EEPROM_TIMEOUT_UserCallback
 .text.EEPROM_EnterCriticalSection_UserCallback
                0x08004658       0x10 BSP\AT24C64\src\ADCT_AT24C64.o
                0x08004658                EEPROM_EnterCriticalSection_UserCallback
 .text.EEPROM_ExitCriticalSection_UserCallback
                0x08004668       0x10 BSP\AT24C64\src\ADCT_AT24C64.o
                0x08004668                EEPROM_ExitCriticalSection_UserCallback
 .text.ADCT_AT24C64_ReadOneByte
                0x08004678       0x34 BSP\AT24C64\src\ADCT_AT24C64.o
                0x08004678                ADCT_AT24C64_ReadOneByte
 .text.ADCT_AT24C64_WriteTwoBytes
                0x080046ac       0x38 BSP\AT24C64\src\ADCT_AT24C64.o
                0x080046ac                ADCT_AT24C64_WriteTwoBytes
 .text.ADCT_AT24C64_WriteOneBytes
                0x080046e4       0x24 BSP\AT24C64\src\ADCT_AT24C64.o
                0x080046e4                ADCT_AT24C64_WriteOneBytes
 .text.ADCT_BGS_Button_Init
                0x08004708       0xd4 BSP\BUTTON\src\ADCT_BGS_BUTTON.o
                0x08004708                ADCT_BGS_Button_Init
 .text.TM_BUTTON_Init
                0x080047dc       0xbc BSP\BUTTON\src\tm_stm32_button.o
                0x080047dc                TM_BUTTON_Init
 .text.TM_BUTTON_SetPressTime
                0x08004898       0x28 BSP\BUTTON\src\tm_stm32_button.o
                0x08004898                TM_BUTTON_SetPressTime
 .text.eMBFuncReadCoils
                0x080048c0      0x100 BSP\MODBUS\modbus\functions\mbfunccoils.o
                0x080048c0                eMBFuncReadCoils
 .text.eMBFuncWriteCoil
                0x080049c0       0xa8 BSP\MODBUS\modbus\functions\mbfunccoils.o
                0x080049c0                eMBFuncWriteCoil
 .text.eMBFuncWriteMultipleCoils
                0x08004a68       0xd0 BSP\MODBUS\modbus\functions\mbfunccoils.o
                0x08004a68                eMBFuncWriteMultipleCoils
 .text.eMBFuncReadDiscreteInputs
                0x08004b38      0x100 BSP\MODBUS\modbus\functions\mbfuncdisc.o
                0x08004b38                eMBFuncReadDiscreteInputs
 .text.eMBFuncWriteHoldingRegister
                0x08004c38       0x6c BSP\MODBUS\modbus\functions\mbfuncholding.o
                0x08004c38                eMBFuncWriteHoldingRegister
 .text.eMBFuncWriteMultipleHoldingRegister
                0x08004ca4       0xb4 BSP\MODBUS\modbus\functions\mbfuncholding.o
                0x08004ca4                eMBFuncWriteMultipleHoldingRegister
 .text.eMBFuncReadHoldingRegister
                0x08004d58       0xe0 BSP\MODBUS\modbus\functions\mbfuncholding.o
                0x08004d58                eMBFuncReadHoldingRegister
 .text.eMBFuncReadWriteMultipleHoldingRegister
                0x08004e38      0x154 BSP\MODBUS\modbus\functions\mbfuncholding.o
                0x08004e38                eMBFuncReadWriteMultipleHoldingRegister
 .text.eMBFuncReadInputRegister
                0x08004f8c       0xe4 BSP\MODBUS\modbus\functions\mbfuncinput.o
                0x08004f8c                eMBFuncReadInputRegister
 .text.eMBFuncReportSlaveID
                0x08005070       0x38 BSP\MODBUS\modbus\functions\mbfuncother.o
                0x08005070                eMBFuncReportSlaveID
 .text.prveMBError2Exception
                0x080050a8       0x3c BSP\MODBUS\modbus\functions\mbutils.o
                0x080050a8                prveMBError2Exception
 .text.eMBInit  0x080050e4       0xf8 BSP\MODBUS\modbus\mb.o
                0x080050e4                eMBInit
 .text.eMBEnable
                0x080051dc       0x38 BSP\MODBUS\modbus\mb.o
                0x080051dc                eMBEnable
 .text.eMBPoll  0x08005214      0x160 BSP\MODBUS\modbus\mb.o
                0x08005214                eMBPoll
 .text.usMBCRC16
                0x08005374       0x6c BSP\MODBUS\modbus\rtu\mbcrc.o
                0x08005374                usMBCRC16
 .text.eMBRTUInit
                0x080053e0       0x74 BSP\MODBUS\modbus\rtu\mbrtu.o
                0x080053e0                eMBRTUInit
 .text.eMBRTUStart
                0x08005454       0x24 BSP\MODBUS\modbus\rtu\mbrtu.o
                0x08005454                eMBRTUStart
 .text.eMBRTUStop
                0x08005478       0x18 BSP\MODBUS\modbus\rtu\mbrtu.o
                0x08005478                eMBRTUStop
 .text.eMBRTUReceive
                0x08005490       0x6c BSP\MODBUS\modbus\rtu\mbrtu.o
                0x08005490                eMBRTUReceive
 .text.eMBRTUSend
                0x080054fc       0xc4 BSP\MODBUS\modbus\rtu\mbrtu.o
                0x080054fc                eMBRTUSend
 .text.xMBRTUReceiveFSM
                0x080055c0       0xac BSP\MODBUS\modbus\rtu\mbrtu.o
                0x080055c0                xMBRTUReceiveFSM
 .text.xMBRTUTransmitFSM
                0x0800566c       0x98 BSP\MODBUS\modbus\rtu\mbrtu.o
                0x0800566c                xMBRTUTransmitFSM
 .text.xMBRTUTimerT35Expired
                0x08005704       0x50 BSP\MODBUS\modbus\rtu\mbrtu.o
                0x08005704                xMBRTUTimerT35Expired
 .text.xMBPortEventInit
                0x08005754       0x18 BSP\MODBUS\port\portevent.o
                0x08005754                xMBPortEventInit
 .text.xMBPortEventPost
                0x0800576c       0x2c BSP\MODBUS\port\portevent.o
                0x0800576c                xMBPortEventPost
 .text.xMBPortEventGet
                0x08005798       0x3c BSP\MODBUS\port\portevent.o
                0x08005798                xMBPortEventGet
 .text.vMBPortSerialEnable
                0x080057d4       0x74 BSP\MODBUS\port\portserial.o
                0x080057d4                vMBPortSerialEnable
 .text.xMBPortSerialInit
                0x08005848      0x10c BSP\MODBUS\port\portserial.o
                0x08005848                xMBPortSerialInit
 .text.xMBPortSerialPutByte
                0x08005954       0x24 BSP\MODBUS\port\portserial.o
                0x08005954                xMBPortSerialPutByte
 .text.xMBPortSerialGetByte
                0x08005978       0x24 BSP\MODBUS\port\portserial.o
                0x08005978                xMBPortSerialGetByte
 .text.USART3_IRQHandler
                0x0800599c       0x54 BSP\MODBUS\port\portserial.o
                0x0800599c                USART3_IRQHandler
 .text.xMBPortTimersInit
                0x080059f0       0x80 BSP\MODBUS\port\porttimer.o
                0x080059f0                xMBPortTimersInit
 .text.vMBPortTimersEnable
                0x08005a70       0x1c BSP\MODBUS\port\porttimer.o
                0x08005a70                vMBPortTimersEnable
 .text.vMBPortTimersDisable
                0x08005a8c       0x14 BSP\MODBUS\port\porttimer.o
                0x08005a8c                vMBPortTimersDisable
 .text.TIM4_IRQHandler
                0x08005aa0       0x2c BSP\MODBUS\port\porttimer.o
                0x08005aa0                TIM4_IRQHandler
 .text.NVIC_EnableIRQ
                0x08005acc       0x30 BSP\PZEM004T\src\PZEM004T.o
 .text.NVIC_DisableIRQ
                0x08005afc       0x34 BSP\PZEM004T\src\PZEM004T.o
 .text.ADCT_PZEM004T_PutChar
                0x08005b30       0x3c BSP\PZEM004T\src\PZEM004T.o
                0x08005b30                ADCT_PZEM004T_PutChar
 .text.ADCT_PZEM004T_getVoltage
                0x08005b6c       0x78 BSP\PZEM004T\src\PZEM004T.o
                0x08005b6c                ADCT_PZEM004T_getVoltage
 .text.ADCT_PZEM004T_getCurrent
                0x08005be4       0x78 BSP\PZEM004T\src\PZEM004T.o
                0x08005be4                ADCT_PZEM004T_getCurrent
 .text.ADCT_PZEM004T_getPower
                0x08005c5c       0x44 BSP\PZEM004T\src\PZEM004T.o
                0x08005c5c                ADCT_PZEM004T_getPower
 .text.ADCT_PZEM004T_getEnergy
                0x08005ca0       0x4c BSP\PZEM004T\src\PZEM004T.o
                0x08005ca0                ADCT_PZEM004T_getEnergy
 .text.ADCT_PZEM004T_setAddress
                0x08005cec       0x28 BSP\PZEM004T\src\PZEM004T.o
                0x08005cec                ADCT_PZEM004T_setAddress
 .text.ADCT_PZEM004T_setPowerAlarm
                0x08005d14       0x30 BSP\PZEM004T\src\PZEM004T.o
                0x08005d14                ADCT_PZEM004T_setPowerAlarm
 .text.ADCT_PZEM004T_receiveData
                0x08005d44       0xd8 BSP\PZEM004T\src\PZEM004T.o
                0x08005d44                ADCT_PZEM004T_receiveData
 .text.ADCT_PZEM0004T_sendData
                0x08005e1c       0x78 BSP\PZEM004T\src\PZEM004T.o
                0x08005e1c                ADCT_PZEM0004T_sendData
 .text.ADCT_PZEM004T_crc
                0x08005e94       0x44 BSP\PZEM004T\src\PZEM004T.o
                0x08005e94                ADCT_PZEM004T_crc
 .text.ADCT_PZEM004T_Init
                0x08005ed8       0x5c BSP\PZEM004T\src\PZEM004T.o
                0x08005ed8                ADCT_PZEM004T_Init
 .text.UART_PZEM004T_Init
                0x08005f34       0xd4 BSP\PZEM004T\src\PZEM004T.o
                0x08005f34                UART_PZEM004T_Init
 .text.PZEM004T_RxCallback
                0x08006008       0x24 BSP\PZEM004T\src\PZEM004T.o
                0x08006008                PZEM004T_RxCallback
 .text.PZEM004T_TxCallback
                0x0800602c       0x28 BSP\PZEM004T\src\PZEM004T.o
                0x0800602c                PZEM004T_TxCallback
 .text.USART1_IRQHandler
                0x08006054       0x94 BSP\PZEM004T\src\PZEM004T.o
                0x08006054                USART1_IRQHandler
 .text.ADCT_AC_Init
                0x080060e8       0x24 BSP\PZEM004T\src\PZEM004T.o
                0x080060e8                ADCT_AC_Init
 .text.ADCT_AC_GetData
                0x0800610c       0x80 BSP\PZEM004T\src\PZEM004T.o
                0x0800610c                ADCT_AC_GetData
 .text.ADCT_AC_ConvertCurrent
                0x0800618c       0x8c BSP\PZEM004T\src\PZEM004T.o
                0x0800618c                ADCT_AC_ConvertCurrent
 .text.ADCT_AC_Convert_Power
                0x08006218       0xd0 BSP\PZEM004T\src\PZEM004T.o
                0x08006218                ADCT_AC_Convert_Power
 .text.ADCT_AC_Convert_Energy
                0x080062e8       0xf8 BSP\PZEM004T\src\PZEM004T.o
                0x080062e8                ADCT_AC_Convert_Energy
 .text.FIFO_Add
                0x080063e0       0x40 BSP\PZEM004T\src\fifo.o
                0x080063e0                FIFO_Add
 .text.FIFO_Push
                0x08006420       0x6c BSP\PZEM004T\src\fifo.o
                0x08006420                FIFO_Push
 .text.FIFO_Pop
                0x0800648c       0x58 BSP\PZEM004T\src\fifo.o
                0x0800648c                FIFO_Pop
 .text.FIFO_IsEmpty
                0x080064e4       0x20 BSP\PZEM004T\src\fifo.o
                0x080064e4                FIFO_IsEmpty
 .text.ADCT_PhSensorInit
                0x08006504       0xac BSP\PhSensor\src\ADCT_PhSensor.o
                0x08006504                ADCT_PhSensorInit
 .text.ADCT_Ph_getValue
                0x080065b0      0x130 BSP\PhSensor\src\ADCT_PhSensor.o
                0x080065b0                ADCT_Ph_getValue
 .text.ADCT_Ph_GetSample
                0x080066e0       0x60 BSP\PhSensor\src\ADCT_PhSensor.o
                0x080066e0                ADCT_Ph_GetSample
 .text.ADCT_Ph_GetStatus
                0x08006740       0x14 BSP\PhSensor\src\ADCT_PhSensor.o
                0x08006740                ADCT_Ph_GetStatus
 .text.ADCT_Relay_Init
                0x08006754      0x104 BSP\RELAY\src\ADCT_Relay.o
                0x08006754                ADCT_Relay_Init
 .text.NVIC_ClearPendingIRQ
                0x08006858       0x34 BSP\RTC\src\ADCT_RTC.o
 .text.RTC_Configuration
                0x0800688c      0x190 BSP\RTC\src\ADCT_RTC.o
                0x0800688c                RTC_Configuration
 .text.RTC_RCC_Configuration
                0x08006a1c       0x70 BSP\RTC\src\ADCT_RTC.o
                0x08006a1c                RTC_RCC_Configuration
 .text.ADCT_BGS_RTC_Init
                0x08006a8c       0x3c BSP\RTC\src\ADCT_RTC.o
                0x08006a8c                ADCT_BGS_RTC_Init
 .text.SetTime  0x08006ac8       0x44 BSP\RTC\src\ADCT_RTC.o
                0x08006ac8                SetTime
 .text.SetDate  0x08006b0c       0xa4 BSP\RTC\src\ADCT_RTC.o
                0x08006b0c                SetDate
 .text.ADCT_BGS_Setting_Date_Time
                0x08006bb0       0x34 BSP\RTC\src\ADCT_RTC.o
                0x08006bb0                ADCT_BGS_Setting_Date_Time
 .text.ADCT_BGS_Run_RTC
                0x08006be4       0xc4 BSP\RTC\src\ADCT_RTC.o
                0x08006be4                ADCT_BGS_Run_RTC
 .text.DateUpdate
                0x08006ca8      0x1a0 BSP\RTC\src\ADCT_RTC.o
                0x08006ca8                DateUpdate
 .text.CheckLeap
                0x08006e48       0x64 BSP\RTC\src\ADCT_RTC.o
                0x08006e48                CheckLeap
 .text.WeekDay  0x08006eac       0xc0 BSP\RTC\src\ADCT_RTC.o
                0x08006eac                WeekDay
 .text.CheckForDaysElapsed
                0x08006f6c       0x74 BSP\RTC\src\ADCT_RTC.o
                0x08006f6c                CheckForDaysElapsed
 .text.RTC_NVIC_Configuration
                0x08006fe0       0x28 BSP\RTC\src\ADCT_RTC.o
                0x08006fe0                RTC_NVIC_Configuration
 .text.RTC_IRQHandler
                0x08007008      0x1b8 BSP\RTC\src\ADCT_RTC.o
                0x08007008                RTC_IRQHandler
 .text.ADCT_BGS_Sensor_Input_Init
                0x080071c0       0x4c BSP\SENSOR\src\ADCT_Sensor.o
                0x080071c0                ADCT_BGS_Sensor_Input_Init
 .text.NVIC_SetPriority
                0x0800720c       0x54 BSP\delay\src\ADCT_BGS_FPT_Delay.o
 .text.SysTick_Config
                0x08007260       0x44 BSP\delay\src\ADCT_BGS_FPT_Delay.o
 .text.ADCT_BGS_Systick_Init
                0x080072a4       0x2c BSP\delay\src\ADCT_BGS_FPT_Delay.o
                0x080072a4                ADCT_BGS_Systick_Init
 .text.TM_DELAY_Init
                0x080072d0       0x60 BSP\delay\src\ADCT_BGS_FPT_Delay.o
                0x080072d0                TM_DELAY_Init
 .text.TM_DELAY_TimerCreate
                0x08007330       0x94 BSP\delay\src\ADCT_BGS_FPT_Delay.o
                0x08007330                TM_DELAY_TimerCreate
 .text.TimerGetUS
                0x080073c4       0x20 BSP\delay\src\ADCT_BGS_FPT_Delay.o
                0x080073c4                TimerGetUS
 .text.HAL_IncTick
                0x080073e4      0x108 BSP\delay\src\ADCT_BGS_FPT_Delay.o
                0x080073e4                HAL_IncTick
 .text.NVIC_PriorityGroupConfig
                0x080074ec       0x24 Libraries\STM32F10x_StdPeriph_Driver\src\misc.o
                0x080074ec                NVIC_PriorityGroupConfig
 .text.NVIC_Init
                0x08007510       0xc4 Libraries\STM32F10x_StdPeriph_Driver\src\misc.o
                0x08007510                NVIC_Init
 .text.ADC_Init
                0x080075d4       0xa4 Libraries\STM32F10x_StdPeriph_Driver\src\stm32f10x_adc.o
                0x080075d4                ADC_Init
 .text.ADC_Cmd  0x08007678       0x38 Libraries\STM32F10x_StdPeriph_Driver\src\stm32f10x_adc.o
                0x08007678                ADC_Cmd
 .text.ADC_ResetCalibration
                0x080076b0       0x20 Libraries\STM32F10x_StdPeriph_Driver\src\stm32f10x_adc.o
                0x080076b0                ADC_ResetCalibration
 .text.ADC_GetResetCalibrationStatus
                0x080076d0       0x30 Libraries\STM32F10x_StdPeriph_Driver\src\stm32f10x_adc.o
                0x080076d0                ADC_GetResetCalibrationStatus
 .text.ADC_StartCalibration
                0x08007700       0x20 Libraries\STM32F10x_StdPeriph_Driver\src\stm32f10x_adc.o
                0x08007700                ADC_StartCalibration
 .text.ADC_GetCalibrationStatus
                0x08007720       0x30 Libraries\STM32F10x_StdPeriph_Driver\src\stm32f10x_adc.o
                0x08007720                ADC_GetCalibrationStatus
 .text.ADC_SoftwareStartConvCmd
                0x08007750       0x38 Libraries\STM32F10x_StdPeriph_Driver\src\stm32f10x_adc.o
                0x08007750                ADC_SoftwareStartConvCmd
 .text.ADC_RegularChannelConfig
                0x08007788      0x194 Libraries\STM32F10x_StdPeriph_Driver\src\stm32f10x_adc.o
                0x08007788                ADC_RegularChannelConfig
 .text.ADC_GetConversionValue
                0x0800791c       0x18 Libraries\STM32F10x_StdPeriph_Driver\src\stm32f10x_adc.o
                0x0800791c                ADC_GetConversionValue
 .text.ADC_TempSensorVrefintCmd
                0x08007934       0x38 Libraries\STM32F10x_StdPeriph_Driver\src\stm32f10x_adc.o
                0x08007934                ADC_TempSensorVrefintCmd
 .text.BKP_DeInit
                0x0800796c       0x14 Libraries\STM32F10x_StdPeriph_Driver\src\stm32f10x_bkp.o
                0x0800796c                BKP_DeInit
 .text.BKP_RTCOutputConfig
                0x08007980       0x38 Libraries\STM32F10x_StdPeriph_Driver\src\stm32f10x_bkp.o
                0x08007980                BKP_RTCOutputConfig
 .text.BKP_WriteBackupRegister
                0x080079b8       0x38 Libraries\STM32F10x_StdPeriph_Driver\src\stm32f10x_bkp.o
                0x080079b8                BKP_WriteBackupRegister
 .text.BKP_ReadBackupRegister
                0x080079f0       0x30 Libraries\STM32F10x_StdPeriph_Driver\src\stm32f10x_bkp.o
                0x080079f0                BKP_ReadBackupRegister
 .text.DMA_DeInit
                0x08007a20      0x178 Libraries\STM32F10x_StdPeriph_Driver\src\stm32f10x_dma.o
                0x08007a20                DMA_DeInit
 .text.DMA_Init
                0x08007b98       0x7c Libraries\STM32F10x_StdPeriph_Driver\src\stm32f10x_dma.o
                0x08007b98                DMA_Init
 .text.DMA_Cmd  0x08007c14       0x38 Libraries\STM32F10x_StdPeriph_Driver\src\stm32f10x_dma.o
                0x08007c14                DMA_Cmd
 .text.DMA_ITConfig
                0x08007c4c       0x3c Libraries\STM32F10x_StdPeriph_Driver\src\stm32f10x_dma.o
                0x08007c4c                DMA_ITConfig
 .text.DMA_GetFlagStatus
                0x08007c88       0x50 Libraries\STM32F10x_StdPeriph_Driver\src\stm32f10x_dma.o
                0x08007c88                DMA_GetFlagStatus
 .text.DMA_ClearFlag
                0x08007cd8       0x34 Libraries\STM32F10x_StdPeriph_Driver\src\stm32f10x_dma.o
                0x08007cd8                DMA_ClearFlag
 .text.EXTI_Init
                0x08007d0c       0xe4 Libraries\STM32F10x_StdPeriph_Driver\src\stm32f10x_exti.o
                0x08007d0c                EXTI_Init
 .text.EXTI_GetITStatus
                0x08007df0       0x48 Libraries\STM32F10x_StdPeriph_Driver\src\stm32f10x_exti.o
                0x08007df0                EXTI_GetITStatus
 .text.EXTI_ClearITPendingBit
                0x08007e38       0x1c Libraries\STM32F10x_StdPeriph_Driver\src\stm32f10x_exti.o
                0x08007e38                EXTI_ClearITPendingBit
 .text.FLASH_SetLatency
                0x08007e54       0x38 Libraries\STM32F10x_StdPeriph_Driver\src\stm32f10x_flash.o
                0x08007e54                FLASH_SetLatency
 .text.FLASH_PrefetchBufferCmd
                0x08007e8c       0x30 Libraries\STM32F10x_StdPeriph_Driver\src\stm32f10x_flash.o
                0x08007e8c                FLASH_PrefetchBufferCmd
 .text.FLASH_Unlock
                0x08007ebc       0x24 Libraries\STM32F10x_StdPeriph_Driver\src\stm32f10x_flash.o
                0x08007ebc                FLASH_Unlock
 .text.GPIO_Init
                0x08007ee0      0x178 Libraries\STM32F10x_StdPeriph_Driver\src\stm32f10x_gpio.o
                0x08007ee0                GPIO_Init
 .text.GPIO_ReadInputDataBit
                0x08008058       0x34 Libraries\STM32F10x_StdPeriph_Driver\src\stm32f10x_gpio.o
                0x08008058                GPIO_ReadInputDataBit
 .text.GPIO_ReadOutputDataBit
                0x0800808c       0x34 Libraries\STM32F10x_StdPeriph_Driver\src\stm32f10x_gpio.o
                0x0800808c                GPIO_ReadOutputDataBit
 .text.GPIO_SetBits
                0x080080c0       0x1c Libraries\STM32F10x_StdPeriph_Driver\src\stm32f10x_gpio.o
                0x080080c0                GPIO_SetBits
 .text.GPIO_ResetBits
                0x080080dc       0x1c Libraries\STM32F10x_StdPeriph_Driver\src\stm32f10x_gpio.o
                0x080080dc                GPIO_ResetBits
 .text.GPIO_EXTILineConfig
                0x080080f8       0x84 Libraries\STM32F10x_StdPeriph_Driver\src\stm32f10x_gpio.o
                0x080080f8                GPIO_EXTILineConfig
 .text.I2C_Init
                0x0800817c      0x184 Libraries\STM32F10x_StdPeriph_Driver\src\stm32f10x_i2c.o
                0x0800817c                I2C_Init
 .text.I2C_Cmd  0x08008300       0x40 Libraries\STM32F10x_StdPeriph_Driver\src\stm32f10x_i2c.o
                0x08008300                I2C_Cmd
 .text.I2C_DMACmd
                0x08008340       0x40 Libraries\STM32F10x_StdPeriph_Driver\src\stm32f10x_i2c.o
                0x08008340                I2C_DMACmd
 .text.I2C_DMALastTransferCmd
                0x08008380       0x40 Libraries\STM32F10x_StdPeriph_Driver\src\stm32f10x_i2c.o
                0x08008380                I2C_DMALastTransferCmd
 .text.I2C_GenerateSTART
                0x080083c0       0x40 Libraries\STM32F10x_StdPeriph_Driver\src\stm32f10x_i2c.o
                0x080083c0                I2C_GenerateSTART
 .text.I2C_GenerateSTOP
                0x08008400       0x40 Libraries\STM32F10x_StdPeriph_Driver\src\stm32f10x_i2c.o
                0x08008400                I2C_GenerateSTOP
 .text.I2C_AcknowledgeConfig
                0x08008440       0x40 Libraries\STM32F10x_StdPeriph_Driver\src\stm32f10x_i2c.o
                0x08008440                I2C_AcknowledgeConfig
 .text.I2C_SendData
                0x08008480       0x20 Libraries\STM32F10x_StdPeriph_Driver\src\stm32f10x_i2c.o
                0x08008480                I2C_SendData
 .text.I2C_ReceiveData
                0x080084a0       0x1c Libraries\STM32F10x_StdPeriph_Driver\src\stm32f10x_i2c.o
                0x080084a0                I2C_ReceiveData
 .text.I2C_Send7bitAddress
                0x080084bc       0x3c Libraries\STM32F10x_StdPeriph_Driver\src\stm32f10x_i2c.o
                0x080084bc                I2C_Send7bitAddress
 .text.I2C_CheckEvent
                0x080084f8       0x60 Libraries\STM32F10x_StdPeriph_Driver\src\stm32f10x_i2c.o
                0x080084f8                I2C_CheckEvent
 .text.I2C_GetFlagStatus
                0x08008558       0x64 Libraries\STM32F10x_StdPeriph_Driver\src\stm32f10x_i2c.o
                0x08008558                I2C_GetFlagStatus
 .text.I2C_ClearFlag
                0x080085bc       0x2c Libraries\STM32F10x_StdPeriph_Driver\src\stm32f10x_i2c.o
                0x080085bc                I2C_ClearFlag
 .text.PWR_BackupAccessCmd
                0x080085e8       0x20 Libraries\STM32F10x_StdPeriph_Driver\src\stm32f10x_pwr.o
                0x080085e8                PWR_BackupAccessCmd
 .text.PWR_PVDCmd
                0x08008608       0x20 Libraries\STM32F10x_StdPeriph_Driver\src\stm32f10x_pwr.o
                0x08008608                PWR_PVDCmd
 .text.PWR_PVDLevelConfig
                0x08008628       0x38 Libraries\STM32F10x_StdPeriph_Driver\src\stm32f10x_pwr.o
                0x08008628                PWR_PVDLevelConfig
 .text.RCC_WaitForHSEStartUp
                0x08008660       0x50 Libraries\STM32F10x_StdPeriph_Driver\src\stm32f10x_rcc.o
                0x08008660                RCC_WaitForHSEStartUp
 .text.RCC_PLLConfig
                0x080086b0       0x3c Libraries\STM32F10x_StdPeriph_Driver\src\stm32f10x_rcc.o
                0x080086b0                RCC_PLLConfig
 .text.RCC_PLLCmd
                0x080086ec       0x20 Libraries\STM32F10x_StdPeriph_Driver\src\stm32f10x_rcc.o
                0x080086ec                RCC_PLLCmd
 .text.RCC_SYSCLKConfig
                0x0800870c       0x38 Libraries\STM32F10x_StdPeriph_Driver\src\stm32f10x_rcc.o
                0x0800870c                RCC_SYSCLKConfig
 .text.RCC_GetSYSCLKSource
                0x08008744       0x1c Libraries\STM32F10x_StdPeriph_Driver\src\stm32f10x_rcc.o
                0x08008744                RCC_GetSYSCLKSource
 .text.RCC_HCLKConfig
                0x08008760       0x38 Libraries\STM32F10x_StdPeriph_Driver\src\stm32f10x_rcc.o
                0x08008760                RCC_HCLKConfig
 .text.RCC_PCLK1Config
                0x08008798       0x38 Libraries\STM32F10x_StdPeriph_Driver\src\stm32f10x_rcc.o
                0x08008798                RCC_PCLK1Config
 .text.RCC_PCLK2Config
                0x080087d0       0x38 Libraries\STM32F10x_StdPeriph_Driver\src\stm32f10x_rcc.o
                0x080087d0                RCC_PCLK2Config
 .text.RCC_LSEConfig
                0x08008808       0x40 Libraries\STM32F10x_StdPeriph_Driver\src\stm32f10x_rcc.o
                0x08008808                RCC_LSEConfig
 .text.RCC_RTCCLKConfig
                0x08008848       0x24 Libraries\STM32F10x_StdPeriph_Driver\src\stm32f10x_rcc.o
                0x08008848                RCC_RTCCLKConfig
 .text.RCC_RTCCLKCmd
                0x0800886c       0x20 Libraries\STM32F10x_StdPeriph_Driver\src\stm32f10x_rcc.o
                0x0800886c                RCC_RTCCLKCmd
 .text.RCC_GetClocksFreq
                0x0800888c      0x160 Libraries\STM32F10x_StdPeriph_Driver\src\stm32f10x_rcc.o
                0x0800888c                RCC_GetClocksFreq
 .text.RCC_AHBPeriphClockCmd
                0x080089ec       0x3c Libraries\STM32F10x_StdPeriph_Driver\src\stm32f10x_rcc.o
                0x080089ec                RCC_AHBPeriphClockCmd
 .text.RCC_APB2PeriphClockCmd
                0x08008a28       0x3c Libraries\STM32F10x_StdPeriph_Driver\src\stm32f10x_rcc.o
                0x08008a28                RCC_APB2PeriphClockCmd
 .text.RCC_APB1PeriphClockCmd
                0x08008a64       0x3c Libraries\STM32F10x_StdPeriph_Driver\src\stm32f10x_rcc.o
                0x08008a64                RCC_APB1PeriphClockCmd
 .text.RCC_BackupResetCmd
                0x08008aa0       0x20 Libraries\STM32F10x_StdPeriph_Driver\src\stm32f10x_rcc.o
                0x08008aa0                RCC_BackupResetCmd
 .text.RCC_GetFlagStatus
                0x08008ac0       0x74 Libraries\STM32F10x_StdPeriph_Driver\src\stm32f10x_rcc.o
                0x08008ac0                RCC_GetFlagStatus
 .text.RTC_ITConfig
                0x08008b34       0x4c Libraries\STM32F10x_StdPeriph_Driver\src\stm32f10x_rtc.o
                0x08008b34                RTC_ITConfig
 .text.RTC_EnterConfigMode
                0x08008b80       0x20 Libraries\STM32F10x_StdPeriph_Driver\src\stm32f10x_rtc.o
                0x08008b80                RTC_EnterConfigMode
 .text.RTC_ExitConfigMode
                0x08008ba0       0x20 Libraries\STM32F10x_StdPeriph_Driver\src\stm32f10x_rtc.o
                0x08008ba0                RTC_ExitConfigMode
 .text.RTC_GetCounter
                0x08008bc0       0x50 Libraries\STM32F10x_StdPeriph_Driver\src\stm32f10x_rtc.o
                0x08008bc0                RTC_GetCounter
 .text.RTC_SetCounter
                0x08008c10       0x30 Libraries\STM32F10x_StdPeriph_Driver\src\stm32f10x_rtc.o
                0x08008c10                RTC_SetCounter
 .text.RTC_SetPrescaler
                0x08008c40       0x34 Libraries\STM32F10x_StdPeriph_Driver\src\stm32f10x_rtc.o
                0x08008c40                RTC_SetPrescaler
 .text.RTC_WaitForLastTask
                0x08008c74       0x20 Libraries\STM32F10x_StdPeriph_Driver\src\stm32f10x_rtc.o
                0x08008c74                RTC_WaitForLastTask
 .text.RTC_GetITStatus
                0x08008c94       0x50 Libraries\STM32F10x_StdPeriph_Driver\src\stm32f10x_rtc.o
                0x08008c94                RTC_GetITStatus
 .text.RTC_ClearITPendingBit
                0x08008ce4       0x2c Libraries\STM32F10x_StdPeriph_Driver\src\stm32f10x_rtc.o
                0x08008ce4                RTC_ClearITPendingBit
 .text.TIM_TimeBaseInit
                0x08008d10       0xf8 Libraries\STM32F10x_StdPeriph_Driver\src\stm32f10x_tim.o
                0x08008d10                TIM_TimeBaseInit
 .text.TIM_TimeBaseStructInit
                0x08008e08       0x34 Libraries\STM32F10x_StdPeriph_Driver\src\stm32f10x_tim.o
                0x08008e08                TIM_TimeBaseStructInit
 .text.TIM_Cmd  0x08008e3c       0x40 Libraries\STM32F10x_StdPeriph_Driver\src\stm32f10x_tim.o
                0x08008e3c                TIM_Cmd
 .text.TIM_ITConfig
                0x08008e7c       0x48 Libraries\STM32F10x_StdPeriph_Driver\src\stm32f10x_tim.o
                0x08008e7c                TIM_ITConfig
 .text.TIM_SetCounter
                0x08008ec4       0x1c Libraries\STM32F10x_StdPeriph_Driver\src\stm32f10x_tim.o
                0x08008ec4                TIM_SetCounter
 .text.TIM_GetITStatus
                0x08008ee0       0x54 Libraries\STM32F10x_StdPeriph_Driver\src\stm32f10x_tim.o
                0x08008ee0                TIM_GetITStatus
 .text.TIM_ClearITPendingBit
                0x08008f34       0x20 Libraries\STM32F10x_StdPeriph_Driver\src\stm32f10x_tim.o
                0x08008f34                TIM_ClearITPendingBit
 .text.USART_Init
                0x08008f54      0x174 Libraries\STM32F10x_StdPeriph_Driver\src\stm32f10x_usart.o
                0x08008f54                USART_Init
 .text.USART_Cmd
                0x080090c8       0x40 Libraries\STM32F10x_StdPeriph_Driver\src\stm32f10x_usart.o
                0x080090c8                USART_Cmd
 .text.USART_ITConfig
                0x08009108       0x90 Libraries\STM32F10x_StdPeriph_Driver\src\stm32f10x_usart.o
                0x08009108                USART_ITConfig
 .text.USART_SendData
                0x08009198       0x24 Libraries\STM32F10x_StdPeriph_Driver\src\stm32f10x_usart.o
                0x08009198                USART_SendData
 .text.USART_ReceiveData
                0x080091bc       0x20 Libraries\STM32F10x_StdPeriph_Driver\src\stm32f10x_usart.o
                0x080091bc                USART_ReceiveData
 .text.USART_GetITStatus
                0x080091dc       0xb4 Libraries\STM32F10x_StdPeriph_Driver\src\stm32f10x_usart.o
                0x080091dc                USART_GetITStatus
 .text.USART_ClearITPendingBit
                0x08009290       0x38 Libraries\STM32F10x_StdPeriph_Driver\src\stm32f10x_usart.o
                0x08009290                USART_ClearITPendingBit
 .text.NVIC_SystemReset
                0x080092c8       0x28 src\main.o
 .text.main     0x080092f0       0xec src\main.o
                0x080092f0                main
 .text.ADCT_BGS_Initialize_system
                0x080093dc      0x3a8 src\main.o
                0x080093dc                ADCT_BGS_Initialize_system
 .text.Restart_DHT22
                0x08009784       0x58 src\main.o
                0x08009784                Restart_DHT22
 .text.Reset_Handler
                0x080097dc       0x50 src\startup_stm32f10x_md.o
                0x080097dc                Reset_Handler
 .text.Default_Handler
                0x0800982c        0x2 src\startup_stm32f10x_md.o
                0x0800982c                TIM1_CC_IRQHandler
                0x0800982c                PVD_IRQHandler
                0x0800982c                EXTI3_IRQHandler
                0x0800982c                I2C2_EV_IRQHandler
                0x0800982c                ADC1_2_IRQHandler
                0x0800982c                SPI1_IRQHandler
                0x0800982c                TAMPER_IRQHandler
                0x0800982c                DMA1_Channel4_IRQHandler
                0x0800982c                CAN1_RX1_IRQHandler
                0x0800982c                I2C1_EV_IRQHandler
                0x0800982c                TIM3_IRQHandler
                0x0800982c                RCC_IRQHandler
                0x0800982c                TIM1_TRG_COM_IRQHandler
                0x0800982c                DMA1_Channel1_IRQHandler
                0x0800982c                Default_Handler
                0x0800982c                SPI2_IRQHandler
                0x0800982c                DMA1_Channel5_IRQHandler
                0x0800982c                EXTI4_IRQHandler
                0x0800982c                USB_LP_CAN1_RX0_IRQHandler
                0x0800982c                USB_HP_CAN1_TX_IRQHandler
                0x0800982c                DMA1_Channel3_IRQHandler
                0x0800982c                TIM1_UP_IRQHandler
                0x0800982c                WWDG_IRQHandler
                0x0800982c                TIM2_IRQHandler
                0x0800982c                TIM1_BRK_IRQHandler
                0x0800982c                RTCAlarm_IRQHandler
                0x0800982c                USART2_IRQHandler
                0x0800982c                I2C2_ER_IRQHandler
                0x0800982c                DMA1_Channel2_IRQHandler
                0x0800982c                CAN1_SCE_IRQHandler
                0x0800982c                FLASH_IRQHandler
                0x0800982c                I2C1_ER_IRQHandler
                0x0800982c                USBWakeUp_IRQHandler
 *fill*         0x0800982e        0x2 
 .text.NMI_Handler
                0x08009830        0xc src\stm32f1xx_it.o
                0x08009830                NMI_Handler
 .text.HardFault_Handler
                0x0800983c        0x8 src\stm32f1xx_it.o
                0x0800983c                HardFault_Handler
 .text.MemManage_Handler
                0x08009844        0x8 src\stm32f1xx_it.o
                0x08009844                MemManage_Handler
 .text.BusFault_Handler
                0x0800984c        0x8 src\stm32f1xx_it.o
                0x0800984c                BusFault_Handler
 .text.UsageFault_Handler
                0x08009854        0x8 src\stm32f1xx_it.o
                0x08009854                UsageFault_Handler
 .text.SVC_Handler
                0x0800985c        0xc src\stm32f1xx_it.o
                0x0800985c                SVC_Handler
 .text.DebugMon_Handler
                0x08009868        0xc src\stm32f1xx_it.o
                0x08009868                DebugMon_Handler
 .text.PendSV_Handler
                0x08009874        0xc src\stm32f1xx_it.o
                0x08009874                PendSV_Handler
 .text.SysTick_Handler
                0x08009880        0xc src\stm32f1xx_it.o
                0x08009880                SysTick_Handler
 .text.SystemInit
                0x0800988c       0x68 src\system_stm32f10x.o
                0x0800988c                SystemInit
 .text.SetSysClock
                0x080098f4        0xc src\system_stm32f10x.o
 .text.SetSysClockTo72
                0x08009900      0x100 src\system_stm32f10x.o
 .text.__libc_init_array
                0x08009a00       0x4c c:/program files (x86)/atollic/truestudio for arm 7.0.0/armtools/bin/../lib/gcc/arm-atollic-eabi/5.3.1/../../../../arm-atollic-eabi/lib/armv7-m\libc_nano.a(lib_a-init.o)
                0x08009a00                __libc_init_array
 .text.malloc   0x08009a4c       0x10 c:/program files (x86)/atollic/truestudio for arm 7.0.0/armtools/bin/../lib/gcc/arm-atollic-eabi/5.3.1/../../../../arm-atollic-eabi/lib/armv7-m\libc_nano.a(lib_a-malloc.o)
                0x08009a4c                malloc
 .text.memcpy   0x08009a5c       0x16 c:/program files (x86)/atollic/truestudio for arm 7.0.0/armtools/bin/../lib/gcc/arm-atollic-eabi/5.3.1/../../../../arm-atollic-eabi/lib/armv7-m\libc_nano.a(lib_a-memcpy-stub.o)
                0x08009a5c                memcpy
 .text.memset   0x08009a72       0x10 c:/program files (x86)/atollic/truestudio for arm 7.0.0/armtools/bin/../lib/gcc/arm-atollic-eabi/5.3.1/../../../../arm-atollic-eabi/lib/armv7-m\libc_nano.a(lib_a-memset.o)
                0x08009a72                memset
 *fill*         0x08009a82        0x2 
 .text._free_r  0x08009a84       0x98 c:/program files (x86)/atollic/truestudio for arm 7.0.0/armtools/bin/../lib/gcc/arm-atollic-eabi/5.3.1/../../../../arm-atollic-eabi/lib/armv7-m\libc_nano.a(lib_a-nano-freer.o)
                0x08009a84                _free_r
 .text._malloc_r
                0x08009b1c       0xbc c:/program files (x86)/atollic/truestudio for arm 7.0.0/armtools/bin/../lib/gcc/arm-atollic-eabi/5.3.1/../../../../arm-atollic-eabi/lib/armv7-m\libc_nano.a(lib_a-nano-mallocr.o)
                0x08009b1c                _malloc_r
 .text.printf   0x08009bd8       0x30 c:/program files (x86)/atollic/truestudio for arm 7.0.0/armtools/bin/../lib/gcc/arm-atollic-eabi/5.3.1/../../../../arm-atollic-eabi/lib/armv7-m\libc_nano.a(lib_a-printf.o)
                0x08009bd8                iprintf
                0x08009bd8                printf
 .text._sbrk_r  0x08009c08       0x20 c:/program files (x86)/atollic/truestudio for arm 7.0.0/armtools/bin/../lib/gcc/arm-atollic-eabi/5.3.1/../../../../arm-atollic-eabi/lib/armv7-m\libc_nano.a(lib_a-sbrkr.o)
                0x08009c08                _sbrk_r
 .text._cleanup_r
                0x08009c28        0xc c:/program files (x86)/atollic/truestudio for arm 7.0.0/armtools/bin/../lib/gcc/arm-atollic-eabi/5.3.1/../../../../arm-atollic-eabi/lib/armv7-m\libc_nano.a(lib_a-findfp.o)
                0x08009c28                _cleanup_r
 .text.std.isra.0
                0x08009c34       0x48 c:/program files (x86)/atollic/truestudio for arm 7.0.0/armtools/bin/../lib/gcc/arm-atollic-eabi/5.3.1/../../../../arm-atollic-eabi/lib/armv7-m\libc_nano.a(lib_a-findfp.o)
 .text.__sfmoreglue
                0x08009c7c       0x2c c:/program files (x86)/atollic/truestudio for arm 7.0.0/armtools/bin/../lib/gcc/arm-atollic-eabi/5.3.1/../../../../arm-atollic-eabi/lib/armv7-m\libc_nano.a(lib_a-findfp.o)
                0x08009c7c                __sfmoreglue
 .text.__sinit  0x08009ca8       0x60 c:/program files (x86)/atollic/truestudio for arm 7.0.0/armtools/bin/../lib/gcc/arm-atollic-eabi/5.3.1/../../../../arm-atollic-eabi/lib/armv7-m\libc_nano.a(lib_a-findfp.o)
                0x08009ca8                __sinit
 .text.__sfp    0x08009d08       0x78 c:/program files (x86)/atollic/truestudio for arm 7.0.0/armtools/bin/../lib/gcc/arm-atollic-eabi/5.3.1/../../../../arm-atollic-eabi/lib/armv7-m\libc_nano.a(lib_a-findfp.o)
                0x08009d08                __sfp
 .text._fwalk_reent
                0x08009d80       0x3c c:/program files (x86)/atollic/truestudio for arm 7.0.0/armtools/bin/../lib/gcc/arm-atollic-eabi/5.3.1/../../../../arm-atollic-eabi/lib/armv7-m\libc_nano.a(lib_a-fwalk.o)
                0x08009d80                _fwalk_reent
 .text.__malloc_lock
                0x08009dbc        0x2 c:/program files (x86)/atollic/truestudio for arm 7.0.0/armtools/bin/../lib/gcc/arm-atollic-eabi/5.3.1/../../../../arm-atollic-eabi/lib/armv7-m\libc_nano.a(lib_a-mlock.o)
                0x08009dbc                __malloc_lock
 .text.__malloc_unlock
                0x08009dbe        0x2 c:/program files (x86)/atollic/truestudio for arm 7.0.0/armtools/bin/../lib/gcc/arm-atollic-eabi/5.3.1/../../../../arm-atollic-eabi/lib/armv7-m\libc_nano.a(lib_a-mlock.o)
                0x08009dbe                __malloc_unlock
 .text.__sfputc_r
                0x08009dc0       0x2c c:/program files (x86)/atollic/truestudio for arm 7.0.0/armtools/bin/../lib/gcc/arm-atollic-eabi/5.3.1/../../../../arm-atollic-eabi/lib/armv7-m\libc_nano.a(lib_a-nano-vfprintf.o)
 .text.__sfputs_r
                0x08009dec       0x24 c:/program files (x86)/atollic/truestudio for arm 7.0.0/armtools/bin/../lib/gcc/arm-atollic-eabi/5.3.1/../../../../arm-atollic-eabi/lib/armv7-m\libc_nano.a(lib_a-nano-vfprintf.o)
                0x08009dec                __sfputs_r
 .text._vfprintf_r
                0x08009e10      0x238 c:/program files (x86)/atollic/truestudio for arm 7.0.0/armtools/bin/../lib/gcc/arm-atollic-eabi/5.3.1/../../../../arm-atollic-eabi/lib/armv7-m\libc_nano.a(lib_a-nano-vfprintf.o)
                0x08009e10                _vfprintf_r
                0x08009e10                _vfiprintf_r
 .text._printf_common
                0x0800a048       0xec c:/program files (x86)/atollic/truestudio for arm 7.0.0/armtools/bin/../lib/gcc/arm-atollic-eabi/5.3.1/../../../../arm-atollic-eabi/lib/armv7-m\libc_nano.a(lib_a-nano-vfprintf_i.o)
                0x0800a048                _printf_common
 .text._printf_i
                0x0800a134      0x24c c:/program files (x86)/atollic/truestudio for arm 7.0.0/armtools/bin/../lib/gcc/arm-atollic-eabi/5.3.1/../../../../arm-atollic-eabi/lib/armv7-m\libc_nano.a(lib_a-nano-vfprintf_i.o)
                0x0800a134                _printf_i
 .text.__sread  0x0800a380       0x22 c:/program files (x86)/atollic/truestudio for arm 7.0.0/armtools/bin/../lib/gcc/arm-atollic-eabi/5.3.1/../../../../arm-atollic-eabi/lib/armv7-m\libc_nano.a(lib_a-stdio.o)
                0x0800a380                __sread
 .text.__swrite
                0x0800a3a2       0x38 c:/program files (x86)/atollic/truestudio for arm 7.0.0/armtools/bin/../lib/gcc/arm-atollic-eabi/5.3.1/../../../../arm-atollic-eabi/lib/armv7-m\libc_nano.a(lib_a-stdio.o)
                0x0800a3a2                __swrite
 .text.__sseek  0x0800a3da       0x24 c:/program files (x86)/atollic/truestudio for arm 7.0.0/armtools/bin/../lib/gcc/arm-atollic-eabi/5.3.1/../../../../arm-atollic-eabi/lib/armv7-m\libc_nano.a(lib_a-stdio.o)
                0x0800a3da                __sseek
 .text.__sclose
                0x0800a3fe        0x8 c:/program files (x86)/atollic/truestudio for arm 7.0.0/armtools/bin/../lib/gcc/arm-atollic-eabi/5.3.1/../../../../arm-atollic-eabi/lib/armv7-m\libc_nano.a(lib_a-stdio.o)
                0x0800a3fe                __sclose
 *fill*         0x0800a406        0x2 
 .text.__swbuf_r
                0x0800a408       0xa8 c:/program files (x86)/atollic/truestudio for arm 7.0.0/armtools/bin/../lib/gcc/arm-atollic-eabi/5.3.1/../../../../arm-atollic-eabi/lib/armv7-m\libc_nano.a(lib_a-wbuf.o)
                0x0800a408                __swbuf_r
 .text._write_r
                0x0800a4b0       0x24 c:/program files (x86)/atollic/truestudio for arm 7.0.0/armtools/bin/../lib/gcc/arm-atollic-eabi/5.3.1/../../../../arm-atollic-eabi/lib/armv7-m\libc_nano.a(lib_a-writer.o)
                0x0800a4b0                _write_r
 .text.__swsetup_r
                0x0800a4d4       0xdc c:/program files (x86)/atollic/truestudio for arm 7.0.0/armtools/bin/../lib/gcc/arm-atollic-eabi/5.3.1/../../../../arm-atollic-eabi/lib/armv7-m\libc_nano.a(lib_a-wsetup.o)
                0x0800a4d4                __swsetup_r
 .text._close_r
                0x0800a5b0       0x20 c:/program files (x86)/atollic/truestudio for arm 7.0.0/armtools/bin/../lib/gcc/arm-atollic-eabi/5.3.1/../../../../arm-atollic-eabi/lib/armv7-m\libc_nano.a(lib_a-closer.o)
                0x0800a5b0                _close_r
 .text.__sflush_r
                0x0800a5d0      0x10c c:/program files (x86)/atollic/truestudio for arm 7.0.0/armtools/bin/../lib/gcc/arm-atollic-eabi/5.3.1/../../../../arm-atollic-eabi/lib/armv7-m\libc_nano.a(lib_a-fflush.o)
                0x0800a5d0                __sflush_r
 .text._fflush_r
                0x0800a6dc       0x54 c:/program files (x86)/atollic/truestudio for arm 7.0.0/armtools/bin/../lib/gcc/arm-atollic-eabi/5.3.1/../../../../arm-atollic-eabi/lib/armv7-m\libc_nano.a(lib_a-fflush.o)
                0x0800a6dc                _fflush_r
 .text._lseek_r
                0x0800a730       0x24 c:/program files (x86)/atollic/truestudio for arm 7.0.0/armtools/bin/../lib/gcc/arm-atollic-eabi/5.3.1/../../../../arm-atollic-eabi/lib/armv7-m\libc_nano.a(lib_a-lseekr.o)
                0x0800a730                _lseek_r
 .text.__swhatbuf_r
                0x0800a754       0x46 c:/program files (x86)/atollic/truestudio for arm 7.0.0/armtools/bin/../lib/gcc/arm-atollic-eabi/5.3.1/../../../../arm-atollic-eabi/lib/armv7-m\libc_nano.a(lib_a-makebuf.o)
                0x0800a754                __swhatbuf_r
 *fill*         0x0800a79a        0x2 
 .text.__smakebuf_r
                0x0800a79c       0x78 c:/program files (x86)/atollic/truestudio for arm 7.0.0/armtools/bin/../lib/gcc/arm-atollic-eabi/5.3.1/../../../../arm-atollic-eabi/lib/armv7-m\libc_nano.a(lib_a-makebuf.o)
                0x0800a79c                __smakebuf_r
 .text.memchr   0x0800a814       0x1c c:/program files (x86)/atollic/truestudio for arm 7.0.0/armtools/bin/../lib/gcc/arm-atollic-eabi/5.3.1/../../../../arm-atollic-eabi/lib/armv7-m\libc_nano.a(lib_a-memchr-stub.o)
                0x0800a814                memchr
 .text._read_r  0x0800a830       0x24 c:/program files (x86)/atollic/truestudio for arm 7.0.0/armtools/bin/../lib/gcc/arm-atollic-eabi/5.3.1/../../../../arm-atollic-eabi/lib/armv7-m\libc_nano.a(lib_a-readr.o)
                0x0800a830                _read_r
 .text._fstat_r
                0x0800a854       0x24 c:/program files (x86)/atollic/truestudio for arm 7.0.0/armtools/bin/../lib/gcc/arm-atollic-eabi/5.3.1/../../../../arm-atollic-eabi/lib/armv7-m\libc_nano.a(lib_a-fstatr.o)
                0x0800a854                _fstat_r
 .text._isatty_r
                0x0800a878       0x20 c:/program files (x86)/atollic/truestudio for arm 7.0.0/armtools/bin/../lib/gcc/arm-atollic-eabi/5.3.1/../../../../arm-atollic-eabi/lib/armv7-m\libc_nano.a(lib_a-isattyr.o)
                0x0800a878                _isatty_r
 .text._close   0x0800a898       0x10 c:/program files (x86)/atollic/truestudio for arm 7.0.0/armtools/bin/../lib/gcc/arm-atollic-eabi/5.3.1/../../../../arm-atollic-eabi/lib/armv7-m\libnosys.a(close.o)
                0x0800a898                _close
 .text._fstat   0x0800a8a8       0x10 c:/program files (x86)/atollic/truestudio for arm 7.0.0/armtools/bin/../lib/gcc/arm-atollic-eabi/5.3.1/../../../../arm-atollic-eabi/lib/armv7-m\libnosys.a(fstat.o)
                0x0800a8a8                _fstat
 .text._isatty  0x0800a8b8       0x10 c:/program files (x86)/atollic/truestudio for arm 7.0.0/armtools/bin/../lib/gcc/arm-atollic-eabi/5.3.1/../../../../arm-atollic-eabi/lib/armv7-m\libnosys.a(isatty.o)
                0x0800a8b8                _isatty
 .text._lseek   0x0800a8c8       0x10 c:/program files (x86)/atollic/truestudio for arm 7.0.0/armtools/bin/../lib/gcc/arm-atollic-eabi/5.3.1/../../../../arm-atollic-eabi/lib/armv7-m\libnosys.a(lseek.o)
                0x0800a8c8                _lseek
 .text._read    0x0800a8d8       0x10 c:/program files (x86)/atollic/truestudio for arm 7.0.0/armtools/bin/../lib/gcc/arm-atollic-eabi/5.3.1/../../../../arm-atollic-eabi/lib/armv7-m\libnosys.a(read.o)
                0x0800a8d8                _read
 .text._sbrk    0x0800a8e8       0x1c c:/program files (x86)/atollic/truestudio for arm 7.0.0/armtools/bin/../lib/gcc/arm-atollic-eabi/5.3.1/../../../../arm-atollic-eabi/lib/armv7-m\libnosys.a(sbrk.o)
                0x0800a8e8                _sbrk
 .text._write   0x0800a904       0x10 c:/program files (x86)/atollic/truestudio for arm 7.0.0/armtools/bin/../lib/gcc/arm-atollic-eabi/5.3.1/../../../../arm-atollic-eabi/lib/armv7-m\libnosys.a(write.o)
                0x0800a904                _write
 *(.glue_7)
 .glue_7        0x0800a914        0x0 linker stubs
 *(.glue_7t)
 .glue_7t       0x0800a914        0x0 linker stubs
 *(.eh_frame)
 .eh_frame      0x0800a914        0x0 c:/program files (x86)/atollic/truestudio for arm 7.0.0/armtools/bin/../lib/gcc/arm-atollic-eabi/5.3.1/armv7-m/crtbegin.o
 *(.init)
 .init          0x0800a914        0x4 c:/program files (x86)/atollic/truestudio for arm 7.0.0/armtools/bin/../lib/gcc/arm-atollic-eabi/5.3.1/armv7-m/crti.o
                0x0800a914                _init
 .init          0x0800a918        0x8 c:/program files (x86)/atollic/truestudio for arm 7.0.0/armtools/bin/../lib/gcc/arm-atollic-eabi/5.3.1/armv7-m/crtn.o
 *(.fini)
 .fini          0x0800a920        0x4 c:/program files (x86)/atollic/truestudio for arm 7.0.0/armtools/bin/../lib/gcc/arm-atollic-eabi/5.3.1/armv7-m/crti.o
                0x0800a920                _fini
 .fini          0x0800a924        0x8 c:/program files (x86)/atollic/truestudio for arm 7.0.0/armtools/bin/../lib/gcc/arm-atollic-eabi/5.3.1/armv7-m/crtn.o
                0x0800a92c                . = ALIGN (0x4)
                0x0800a92c                _etext = .

.vfp11_veneer   0x0800a92c        0x0
 .vfp11_veneer  0x0800a92c        0x0 linker stubs

.v4_bx          0x0800a92c        0x0
 .v4_bx         0x0800a92c        0x0 linker stubs

.iplt           0x0800a92c        0x0
 .iplt          0x0800a92c        0x0 c:/program files (x86)/atollic/truestudio for arm 7.0.0/armtools/bin/../lib/gcc/arm-atollic-eabi/5.3.1/armv7-m/crtbegin.o

.rodata         0x0800a92c      0x2d4
                0x0800a92c                . = ALIGN (0x4)
 *(.rodata)
 .rodata        0x0800a92c       0x38 BSP\PZEM004T\src\fifo.o
 *(.rodata*)
 .rodata.aucCRCHi
                0x0800a964      0x100 BSP\MODBUS\modbus\rtu\mbcrc.o
 .rodata.aucCRCLo
                0x0800aa64      0x100 BSP\MODBUS\modbus\rtu\mbcrc.o
 .rodata.__sf_fake_stdin
                0x0800ab64       0x20 c:/program files (x86)/atollic/truestudio for arm 7.0.0/armtools/bin/../lib/gcc/arm-atollic-eabi/5.3.1/../../../../arm-atollic-eabi/lib/armv7-m\libc_nano.a(lib_a-findfp.o)
                0x0800ab64                __sf_fake_stdin
 .rodata.__sf_fake_stdout
                0x0800ab84       0x20 c:/program files (x86)/atollic/truestudio for arm 7.0.0/armtools/bin/../lib/gcc/arm-atollic-eabi/5.3.1/../../../../arm-atollic-eabi/lib/armv7-m\libc_nano.a(lib_a-findfp.o)
                0x0800ab84                __sf_fake_stdout
 .rodata.__sf_fake_stderr
                0x0800aba4       0x20 c:/program files (x86)/atollic/truestudio for arm 7.0.0/armtools/bin/../lib/gcc/arm-atollic-eabi/5.3.1/../../../../arm-atollic-eabi/lib/armv7-m\libc_nano.a(lib_a-findfp.o)
                0x0800aba4                __sf_fake_stderr
 .rodata.str1.1
                0x0800abc4        0x2 c:/program files (x86)/atollic/truestudio for arm 7.0.0/armtools/bin/../lib/gcc/arm-atollic-eabi/5.3.1/../../../../arm-atollic-eabi/lib/armv7-m\libc_nano.a(lib_a-impure.o)
 *fill*         0x0800abc6        0x2 
 .rodata._global_impure_ptr
                0x0800abc8        0x4 c:/program files (x86)/atollic/truestudio for arm 7.0.0/armtools/bin/../lib/gcc/arm-atollic-eabi/5.3.1/../../../../arm-atollic-eabi/lib/armv7-m\libc_nano.a(lib_a-impure.o)
                0x0800abc8                _global_impure_ptr
 .rodata.str1.1
                0x0800abcc       0x11 c:/program files (x86)/atollic/truestudio for arm 7.0.0/armtools/bin/../lib/gcc/arm-atollic-eabi/5.3.1/../../../../arm-atollic-eabi/lib/armv7-m\libc_nano.a(lib_a-nano-vfprintf.o)
 .rodata.str1.1
                0x0800abdd       0x22 c:/program files (x86)/atollic/truestudio for arm 7.0.0/armtools/bin/../lib/gcc/arm-atollic-eabi/5.3.1/../../../../arm-atollic-eabi/lib/armv7-m\libc_nano.a(lib_a-nano-vfprintf_i.o)
                0x0800ac00                . = ALIGN (0x4)
 *fill*         0x0800abff        0x1 

.rel.dyn        0x0800ac00        0x0
 .rel.iplt      0x0800ac00        0x0 c:/program files (x86)/atollic/truestudio for arm 7.0.0/armtools/bin/../lib/gcc/arm-atollic-eabi/5.3.1/armv7-m/crtbegin.o

.ARM.extab
 *(.ARM.extab* .gnu.linkonce.armextab.*)

.ARM            0x0800ac00        0x0
                0x0800ac00                __exidx_start = .
 *(.ARM.exidx*)
                0x0800ac00                __exidx_end = .

.preinit_array  0x0800ac00        0x0
                0x0800ac00                PROVIDE (__preinit_array_start, .)
 *(.preinit_array*)
                0x0800ac00                PROVIDE (__preinit_array_end, .)

.init_array     0x0800ac00        0x4
                0x0800ac00                PROVIDE (__init_array_start, .)
 *(SORT(.init_array.*))
 *(.init_array*)
 .init_array    0x0800ac00        0x4 c:/program files (x86)/atollic/truestudio for arm 7.0.0/armtools/bin/../lib/gcc/arm-atollic-eabi/5.3.1/armv7-m/crtbegin.o
                0x0800ac04                PROVIDE (__init_array_end, .)

.fini_array     0x0800ac04        0x4
                [!provide]                PROVIDE (__fini_array_start, .)
 *(SORT(.fini_array.*))
 *(.fini_array*)
 .fini_array    0x0800ac04        0x4 c:/program files (x86)/atollic/truestudio for arm 7.0.0/armtools/bin/../lib/gcc/arm-atollic-eabi/5.3.1/armv7-m/crtbegin.o
                [!provide]                PROVIDE (__fini_array_end, .)
                0x0800ac08                _sidata = LOADADDR (.data)

.data           0x20000000      0x200 load address 0x0800ac08
                0x20000000                . = ALIGN (0x4)
                0x20000000                _sdata = .
 *(.data)
 *(.data*)
 .data.adct_bgs_main_state_table
                0x20000000       0xf0 Apps\src\ADCT_BGS_Bare_state.o
                0x20000000                adct_bgs_main_state_table
 .data.usRegHoldingStart
                0x200000f0        0x2 Apps\src\ADCT_BGS_Modbus.o
 *fill*         0x200000f2        0x2 
 .data.EEPROMTimeout
                0x200000f4        0x4 BSP\AT24C64\src\ADCT_AT24C64.o
                0x200000f4                EEPROMTimeout
 .data.eMBState
                0x200000f8        0x1 BSP\MODBUS\modbus\mb.o
 *fill*         0x200000f9        0x3 
 .data.xFuncHandlers
                0x200000fc       0x80 BSP\MODBUS\modbus\mb.o
 .data.IP_addr  0x2000017c        0x4 BSP\PZEM004T\src\PZEM004T.o
                0x2000017c                IP_addr
 .data.bkupdata
                0x20000180        0x4 BSP\RTC\src\ADCT_RTC.o
                0x20000180                bkupdata
 .data.APBAHBPrescTable
                0x20000184       0x10 Libraries\STM32F10x_StdPeriph_Driver\src\stm32f10x_rcc.o
 .data.ADCPrescTable
                0x20000194        0x4 Libraries\STM32F10x_StdPeriph_Driver\src\stm32f10x_rcc.o
 .data.SystemCoreClock
                0x20000198        0x4 src\system_stm32f10x.o
                0x20000198                SystemCoreClock
 .data.impure_data
                0x2000019c       0x60 c:/program files (x86)/atollic/truestudio for arm 7.0.0/armtools/bin/../lib/gcc/arm-atollic-eabi/5.3.1/../../../../arm-atollic-eabi/lib/armv7-m\libc_nano.a(lib_a-impure.o)
 .data._impure_ptr
                0x200001fc        0x4 c:/program files (x86)/atollic/truestudio for arm 7.0.0/armtools/bin/../lib/gcc/arm-atollic-eabi/5.3.1/../../../../arm-atollic-eabi/lib/armv7-m\libc_nano.a(lib_a-impure.o)
                0x200001fc                _impure_ptr
                0x20000200                . = ALIGN (0x4)
                0x20000200                _edata = .

.igot.plt       0x20000200        0x0 load address 0x0800ae08
 .igot.plt      0x20000200        0x0 c:/program files (x86)/atollic/truestudio for arm 7.0.0/armtools/bin/../lib/gcc/arm-atollic-eabi/5.3.1/armv7-m/crtbegin.o
                0x20000200                . = ALIGN (0x4)

.bss            0x20000200     0x2544 load address 0x0800ae08
                0x20000200                _sbss = .
                0x20000200                __bss_start__ = _sbss
 *(.bss)
 .bss           0x20000200       0x1c c:/program files (x86)/atollic/truestudio for arm 7.0.0/armtools/bin/../lib/gcc/arm-atollic-eabi/5.3.1/armv7-m/crtbegin.o
 *(.bss*)
 .bss.ActState  0x2000021c        0x1 Apps\src\ADCT_BGS_Bare_state.o
                0x2000021c                ActState
 *fill*         0x2000021d        0x3 
 .bss.usRegHoldingBuf
                0x20000220       0xb0 Apps\src\ADCT_BGS_Modbus.o
 .bss.g_DhtRaw  0x200002d0        0xa BSP\AM2302\src\ADCT_DHT22.o
 *fill*         0x200002da        0x2 
 .bss.g_DhtMeasuring
                0x200002dc        0x2 BSP\AM2302\src\ADCT_DHT22.o
 .bss.cnt.7950  0x200002de        0x1 BSP\AM2302\src\ADCT_DHT22.o
 *fill*         0x200002df        0x1 
 .bss.timeUs.7949
                0x200002e0        0x4 BSP\AM2302\src\ADCT_DHT22.o
 .bss.cnt.7956  0x200002e4        0x1 BSP\AM2302\src\ADCT_DHT22.o
 *fill*         0x200002e5        0x3 
 .bss.timeUs.7955
                0x200002e8        0x4 BSP\AM2302\src\ADCT_DHT22.o
 .bss.g_ExtiConfig
                0x200002ec       0xc0 BSP\AM2302\src\ADCT_DHT22_exti.o
 .bss.EEPROMAddress
                0x200003ac        0x2 BSP\AT24C64\src\ADCT_AT24C64.o
                0x200003ac                EEPROMAddress
 *fill*         0x200003ae        0x2 
 .bss.Buttons   0x200003b0       0x2c BSP\BUTTON\src\tm_stm32_button.o
 .bss.ucMBSlaveID
                0x200003dc       0x20 BSP\MODBUS\modbus\functions\mbfuncother.o
 .bss.usMBSlaveIDLen
                0x200003fc        0x2 BSP\MODBUS\modbus\functions\mbfuncother.o
 .bss.ucMBAddress
                0x200003fe        0x1 BSP\MODBUS\modbus\mb.o
 .bss.eMBCurrentMode
                0x200003ff        0x1 BSP\MODBUS\modbus\mb.o
 .bss.peMBFrameSendCur
                0x20000400        0x4 BSP\MODBUS\modbus\mb.o
 .bss.pvMBFrameStartCur
                0x20000404        0x4 BSP\MODBUS\modbus\mb.o
 .bss.pvMBFrameStopCur
                0x20000408        0x4 BSP\MODBUS\modbus\mb.o
 .bss.peMBFrameReceiveCur
                0x2000040c        0x4 BSP\MODBUS\modbus\mb.o
 .bss.pvMBFrameCloseCur
                0x20000410        0x4 BSP\MODBUS\modbus\mb.o
 .bss.ucRcvAddress.7715
                0x20000414        0x1 BSP\MODBUS\modbus\mb.o
 *fill*         0x20000415        0x3 
 .bss.ucMBFrame.7714
                0x20000418        0x4 BSP\MODBUS\modbus\mb.o
 .bss.usLength.7717
                0x2000041c        0x2 BSP\MODBUS\modbus\mb.o
 .bss.ucFunctionCode.7716
                0x2000041e        0x1 BSP\MODBUS\modbus\mb.o
 .bss.eException.7718
                0x2000041f        0x1 BSP\MODBUS\modbus\mb.o
 .bss.eSndState
                0x20000420        0x1 BSP\MODBUS\modbus\rtu\mbrtu.o
 .bss.eRcvState
                0x20000421        0x1 BSP\MODBUS\modbus\rtu\mbrtu.o
 *fill*         0x20000422        0x2 
 .bss.pucSndBufferCur
                0x20000424        0x4 BSP\MODBUS\modbus\rtu\mbrtu.o
 .bss.usSndBufferCount
                0x20000428        0x2 BSP\MODBUS\modbus\rtu\mbrtu.o
 .bss.usRcvBufferPos
                0x2000042a        0x2 BSP\MODBUS\modbus\rtu\mbrtu.o
 .bss.eQueuedEvent
                0x2000042c        0x1 BSP\MODBUS\port\portevent.o
 .bss.xEventInQueue
                0x2000042d        0x1 BSP\MODBUS\port\portevent.o
 *fill*         0x2000042e        0x2 
 .bss.ADCT_PZEM004T_RXBUFFER
                0x20000430     0x1000 BSP\PZEM004T\src\PZEM004T.o
 .bss.ADCT_PZEM004T_TXBUFFER
                0x20001430     0x1000 BSP\PZEM004T\src\PZEM004T.o
 .bss.rxFifo    0x20002430        0xc BSP\PZEM004T\src\PZEM004T.o
 .bss.txFifo    0x2000243c        0xc BSP\PZEM004T\src\PZEM004T.o
 .bss.rxCallback
                0x20002448        0x4 BSP\PZEM004T\src\PZEM004T.o
 .bss.txCallback
                0x2000244c        0x4 BSP\PZEM004T\src\PZEM004T.o
 .bss.ac_cnt    0x20002450        0x1 BSP\PZEM004T\src\PZEM004T.o
 .bss.Data_avai
                0x20002451        0x1 BSP\PhSensor\src\ADCT_PhSensor.o
                0x20002451                Data_avai
 *fill*         0x20002452        0x2 
 .bss.TM_Time2  0x20002454        0x4 BSP\delay\src\ADCT_BGS_FPT_Delay.o
                0x20002454                TM_Time2
 .bss.TM_Time   0x20002458        0x4 BSP\delay\src\ADCT_BGS_FPT_Delay.o
                0x20002458                TM_Time
 .bss.CustomTimers
                0x2000245c       0x18 BSP\delay\src\ADCT_BGS_FPT_Delay.o
 .bss.ui8flag_set_time
                0x20002474        0x1 src\main.o
                0x20002474                ui8flag_set_time
 *fill*         0x20002475        0x1 
 .bss.LowByte.8464
                0x20002476        0x2 src\main.o
 .bss.HighByte.8463
                0x20002478        0x2 src\main.o
 *fill*         0x2000247a        0x2 
 .bss.__malloc_sbrk_start
                0x2000247c        0x4 c:/program files (x86)/atollic/truestudio for arm 7.0.0/armtools/bin/../lib/gcc/arm-atollic-eabi/5.3.1/../../../../arm-atollic-eabi/lib/armv7-m\libc_nano.a(lib_a-nano-mallocr.o)
                0x2000247c                __malloc_sbrk_start
 .bss.__malloc_free_list
                0x20002480        0x4 c:/program files (x86)/atollic/truestudio for arm 7.0.0/armtools/bin/../lib/gcc/arm-atollic-eabi/5.3.1/../../../../arm-atollic-eabi/lib/armv7-m\libc_nano.a(lib_a-nano-mallocr.o)
                0x20002480                __malloc_free_list
 .bss.heap_end.4167
                0x20002484        0x4 c:/program files (x86)/atollic/truestudio for arm 7.0.0/armtools/bin/../lib/gcc/arm-atollic-eabi/5.3.1/../../../../arm-atollic-eabi/lib/armv7-m\libnosys.a(sbrk.o)
 *(COMMON)
 COMMON         0x20002488        0x4 ASW_Task\src\ADCT_BGS_BSW_Task.o
                0x20002488                g_ASW_Task_flag
 COMMON         0x2000248c       0x4c Apps\src\ADCT_BGS_Modbus.o
                0x2000248c                temp_setting
                0x20002490                _address
                0x20002494                ADCT_BGS_REBOOT_BOARD
                0x20002498                GTempSetting
 COMMON         0x200024d8       0x31 Apps\src\ADCT_BGS_State.o
                0x200024d8                count_ac
                0x200024d9                count_dht22
                0x200024dc                g_ADCT_BGS_TimerManager
                0x200024f4                g_ADCT_BGS_Current_RTC
                0x200024fc                g_ADCT_BGS_StateOutput
 *fill*         0x20002509        0x3 
 COMMON         0x2000250c       0x90 Apps\src\ADCT_BGS_System.o
                0x2000250c                GstSystemSetting
                0x2000254c                TempStateTimer
                0x20002550                GstSystemWarning
                0x20002558                GstSystemStatus
 COMMON         0x2000259c       0x35 BSP\AT24C64\src\ADCT_AT24C64.o
                0x2000259c                EEPROMDataWritePointer
                0x200025a0                EEPROMDataReadPointer
                0x200025a4                EEPROMDMA_InitStructure
                0x200025d0                EEPROMDataNum
 *fill*         0x200025d1        0x3 
 COMMON         0x200025d4       0x10 BSP\BUTTON\src\ADCT_BGS_BUTTON.o
                0x200025d4                CancelButton
                0x200025d8                UpButton
                0x200025dc                DownButton
                0x200025e0                EnterButton
 COMMON         0x200025e4       0x14 BSP\MODBUS\modbus\mb.o
                0x200025e4                pxMBFrameCBTransmitterEmpty
                0x200025e8                pxMBPortCBTimerExpired
                0x200025ec                pxMBFrameCBByteReceived
                0x200025f0                pxMBFrameCBTransmitFSMCur
                0x200025f4                pxMBFrameCBReceiveFSMCur
 COMMON         0x200025f8      0x100 BSP\MODBUS\modbus\rtu\mbrtu.o
                0x200025f8                ucRTUBuf
 COMMON         0x200026f8       0x20 BSP\PhSensor\src\ADCT_PhSensor.o
                0x200026f8                avgValue
                0x200026fc                temp
                0x20002700                idx_u8
                0x20002704                SampleData_pu16
 COMMON         0x20002718        0xd BSP\RTC\src\ADCT_RTC.o
                0x20002718                s_DateStructVar
                0x2000271c                s_TimeStructVar
                0x20002722                SummerTimeCorrect
                0x20002724                ClockSource
 *fill*         0x20002725        0x3 
 COMMON         0x20002728       0x18 src\main.o
                0x20002728                ADCT_BGS_Date_Time_Setting
                0x20002730                TestTimer
                0x20002734                StartTime
                0x20002738                ADCT_PHVal
 COMMON         0x20002740        0x4 c:/program files (x86)/atollic/truestudio for arm 7.0.0/armtools/bin/../lib/gcc/arm-atollic-eabi/5.3.1/../../../../arm-atollic-eabi/lib/armv7-m\libc_nano.a(lib_a-reent.o)
                0x20002740                errno
                0x20002744                . = ALIGN (0x4)
                0x20002744                _ebss = .
                0x20002744                __bss_end__ = _ebss

._user_heap_stack
                0x20002744      0x100 load address 0x0800ae08
                0x20002744                . = ALIGN (0x4)
                0x20002744                PROVIDE (end, .)
                [!provide]                PROVIDE (_end, .)
                0x20002744                . = (. + _Min_Heap_Size)
                0x20002844                . = (. + _Min_Stack_Size)
 *fill*         0x20002744      0x100 
                0x20002844                . = ALIGN (0x4)

.memory_b1_text
 *(.mb1text)
 *(.mb1text*)
 *(.mb1rodata)
 *(.mb1rodata*)

/DISCARD/
 libc.a(*)
 libm.a(*)
 libgcc.a(*)

.ARM.attributes
                0x00000000       0x29
 *(.ARM.attributes)
 .ARM.attributes
                0x00000000       0x1d c:/program files (x86)/atollic/truestudio for arm 7.0.0/armtools/bin/../lib/gcc/arm-atollic-eabi/5.3.1/armv7-m/crti.o
 .ARM.attributes
                0x0000001d       0x2d c:/program files (x86)/atollic/truestudio for arm 7.0.0/armtools/bin/../lib/gcc/arm-atollic-eabi/5.3.1/armv7-m/crtbegin.o
 .ARM.attributes
                0x0000004a       0x33 ASW_Task\src\ADCT_BGS_BSW_Task.o
 .ARM.attributes
                0x0000007d       0x33 Apps\src\ADCT_BGS_Bare_state.o
 .ARM.attributes
                0x000000b0       0x33 Apps\src\ADCT_BGS_Modbus.o
 .ARM.attributes
                0x000000e3       0x33 Apps\src\ADCT_BGS_State.o
 .ARM.attributes
                0x00000116       0x33 Apps\src\ADCT_BGS_System.o
 .ARM.attributes
                0x00000149       0x33 BSP\AM2302\src\ADCT_DHT22.o
 .ARM.attributes
                0x0000017c       0x33 BSP\AM2302\src\ADCT_DHT22_exti.o
 .ARM.attributes
                0x000001af       0x33 BSP\AT24C64\src\ADCT_AT24C64.o
 .ARM.attributes
                0x000001e2       0x33 BSP\BUTTON\src\ADCT_BGS_BUTTON.o
 .ARM.attributes
                0x00000215       0x33 BSP\BUTTON\src\tm_stm32_button.o
 .ARM.attributes
                0x00000248       0x33 BSP\MODBUS\modbus\functions\mbfunccoils.o
 .ARM.attributes
                0x0000027b       0x33 BSP\MODBUS\modbus\functions\mbfuncdisc.o
 .ARM.attributes
                0x000002ae       0x33 BSP\MODBUS\modbus\functions\mbfuncholding.o
 .ARM.attributes
                0x000002e1       0x33 BSP\MODBUS\modbus\functions\mbfuncinput.o
 .ARM.attributes
                0x00000314       0x33 BSP\MODBUS\modbus\functions\mbfuncother.o
 .ARM.attributes
                0x00000347       0x33 BSP\MODBUS\modbus\functions\mbutils.o
 .ARM.attributes
                0x0000037a       0x33 BSP\MODBUS\modbus\mb.o
 .ARM.attributes
                0x000003ad       0x33 BSP\MODBUS\modbus\rtu\mbcrc.o
 .ARM.attributes
                0x000003e0       0x33 BSP\MODBUS\modbus\rtu\mbrtu.o
 .ARM.attributes
                0x00000413       0x33 BSP\MODBUS\port\portevent.o
 .ARM.attributes
                0x00000446       0x33 BSP\MODBUS\port\portserial.o
 .ARM.attributes
                0x00000479       0x33 BSP\MODBUS\port\porttimer.o
 .ARM.attributes
                0x000004ac       0x33 BSP\PZEM004T\src\PZEM004T.o
 .ARM.attributes
                0x000004df       0x33 BSP\PZEM004T\src\fifo.o
 .ARM.attributes
                0x00000512       0x33 BSP\PhSensor\src\ADCT_PhSensor.o
 .ARM.attributes
                0x00000545       0x33 BSP\RELAY\src\ADCT_Relay.o
 .ARM.attributes
                0x00000578       0x33 BSP\RTC\src\ADCT_RTC.o
 .ARM.attributes
                0x000005ab       0x33 BSP\SENSOR\src\ADCT_Sensor.o
 .ARM.attributes
                0x000005de       0x33 BSP\delay\src\ADCT_BGS_FPT_Delay.o
 .ARM.attributes
                0x00000611       0x33 Libraries\STM32F10x_StdPeriph_Driver\src\misc.o
 .ARM.attributes
                0x00000644       0x33 Libraries\STM32F10x_StdPeriph_Driver\src\stm32f10x_adc.o
 .ARM.attributes
                0x00000677       0x33 Libraries\STM32F10x_StdPeriph_Driver\src\stm32f10x_bkp.o
 .ARM.attributes
                0x000006aa       0x33 Libraries\STM32F10x_StdPeriph_Driver\src\stm32f10x_dma.o
 .ARM.attributes
                0x000006dd       0x33 Libraries\STM32F10x_StdPeriph_Driver\src\stm32f10x_exti.o
 .ARM.attributes
                0x00000710       0x33 Libraries\STM32F10x_StdPeriph_Driver\src\stm32f10x_flash.o
 .ARM.attributes
                0x00000743       0x33 Libraries\STM32F10x_StdPeriph_Driver\src\stm32f10x_gpio.o
 .ARM.attributes
                0x00000776       0x33 Libraries\STM32F10x_StdPeriph_Driver\src\stm32f10x_i2c.o
 .ARM.attributes
                0x000007a9       0x33 Libraries\STM32F10x_StdPeriph_Driver\src\stm32f10x_pwr.o
 .ARM.attributes
                0x000007dc       0x33 Libraries\STM32F10x_StdPeriph_Driver\src\stm32f10x_rcc.o
 .ARM.attributes
                0x0000080f       0x33 Libraries\STM32F10x_StdPeriph_Driver\src\stm32f10x_rtc.o
 .ARM.attributes
                0x00000842       0x33 Libraries\STM32F10x_StdPeriph_Driver\src\stm32f10x_tim.o
 .ARM.attributes
                0x00000875       0x33 Libraries\STM32F10x_StdPeriph_Driver\src\stm32f10x_usart.o
 .ARM.attributes
                0x000008a8       0x33 src\main.o
 .ARM.attributes
                0x000008db       0x21 src\startup_stm32f10x_md.o
 .ARM.attributes
                0x000008fc       0x33 src\stm32f1xx_it.o
 .ARM.attributes
                0x0000092f       0x33 src\system_stm32f10x.o
 .ARM.attributes
                0x00000962       0x2d c:/program files (x86)/atollic/truestudio for arm 7.0.0/armtools/bin/../lib/gcc/arm-atollic-eabi/5.3.1/../../../../arm-atollic-eabi/lib/armv7-m\libc_nano.a(lib_a-init.o)
 .ARM.attributes
                0x0000098f       0x2d c:/program files (x86)/atollic/truestudio for arm 7.0.0/armtools/bin/../lib/gcc/arm-atollic-eabi/5.3.1/../../../../arm-atollic-eabi/lib/armv7-m\libc_nano.a(lib_a-malloc.o)
 .ARM.attributes
                0x000009bc       0x2d c:/program files (x86)/atollic/truestudio for arm 7.0.0/armtools/bin/../lib/gcc/arm-atollic-eabi/5.3.1/../../../../arm-atollic-eabi/lib/armv7-m\libc_nano.a(lib_a-memcpy-stub.o)
 .ARM.attributes
                0x000009e9       0x2d c:/program files (x86)/atollic/truestudio for arm 7.0.0/armtools/bin/../lib/gcc/arm-atollic-eabi/5.3.1/../../../../arm-atollic-eabi/lib/armv7-m\libc_nano.a(lib_a-memset.o)
 .ARM.attributes
                0x00000a16       0x2d c:/program files (x86)/atollic/truestudio for arm 7.0.0/armtools/bin/../lib/gcc/arm-atollic-eabi/5.3.1/../../../../arm-atollic-eabi/lib/armv7-m\libc_nano.a(lib_a-nano-freer.o)
 .ARM.attributes
                0x00000a43       0x2d c:/program files (x86)/atollic/truestudio for arm 7.0.0/armtools/bin/../lib/gcc/arm-atollic-eabi/5.3.1/../../../../arm-atollic-eabi/lib/armv7-m\libc_nano.a(lib_a-nano-mallocr.o)
 .ARM.attributes
                0x00000a70       0x2d c:/program files (x86)/atollic/truestudio for arm 7.0.0/armtools/bin/../lib/gcc/arm-atollic-eabi/5.3.1/../../../../arm-atollic-eabi/lib/armv7-m\libc_nano.a(lib_a-printf.o)
 .ARM.attributes
                0x00000a9d       0x2d c:/program files (x86)/atollic/truestudio for arm 7.0.0/armtools/bin/../lib/gcc/arm-atollic-eabi/5.3.1/../../../../arm-atollic-eabi/lib/armv7-m\libc_nano.a(lib_a-sbrkr.o)
 .ARM.attributes
                0x00000aca       0x2d c:/program files (x86)/atollic/truestudio for arm 7.0.0/armtools/bin/../lib/gcc/arm-atollic-eabi/5.3.1/../../../../arm-atollic-eabi/lib/armv7-m\libc_nano.a(lib_a-findfp.o)
 .ARM.attributes
                0x00000af7       0x2d c:/program files (x86)/atollic/truestudio for arm 7.0.0/armtools/bin/../lib/gcc/arm-atollic-eabi/5.3.1/../../../../arm-atollic-eabi/lib/armv7-m\libc_nano.a(lib_a-fwalk.o)
 .ARM.attributes
                0x00000b24       0x2d c:/program files (x86)/atollic/truestudio for arm 7.0.0/armtools/bin/../lib/gcc/arm-atollic-eabi/5.3.1/../../../../arm-atollic-eabi/lib/armv7-m\libc_nano.a(lib_a-impure.o)
 .ARM.attributes
                0x00000b51       0x2d c:/program files (x86)/atollic/truestudio for arm 7.0.0/armtools/bin/../lib/gcc/arm-atollic-eabi/5.3.1/../../../../arm-atollic-eabi/lib/armv7-m\libc_nano.a(lib_a-mlock.o)
 .ARM.attributes
                0x00000b7e       0x2d c:/program files (x86)/atollic/truestudio for arm 7.0.0/armtools/bin/../lib/gcc/arm-atollic-eabi/5.3.1/../../../../arm-atollic-eabi/lib/armv7-m\libc_nano.a(lib_a-nano-vfprintf.o)
 .ARM.attributes
                0x00000bab       0x2d c:/program files (x86)/atollic/truestudio for arm 7.0.0/armtools/bin/../lib/gcc/arm-atollic-eabi/5.3.1/../../../../arm-atollic-eabi/lib/armv7-m\libc_nano.a(lib_a-nano-vfprintf_i.o)
 .ARM.attributes
                0x00000bd8       0x2d c:/program files (x86)/atollic/truestudio for arm 7.0.0/armtools/bin/../lib/gcc/arm-atollic-eabi/5.3.1/../../../../arm-atollic-eabi/lib/armv7-m\libc_nano.a(lib_a-reent.o)
 .ARM.attributes
                0x00000c05       0x2d c:/program files (x86)/atollic/truestudio for arm 7.0.0/armtools/bin/../lib/gcc/arm-atollic-eabi/5.3.1/../../../../arm-atollic-eabi/lib/armv7-m\libc_nano.a(lib_a-stdio.o)
 .ARM.attributes
                0x00000c32       0x2d c:/program files (x86)/atollic/truestudio for arm 7.0.0/armtools/bin/../lib/gcc/arm-atollic-eabi/5.3.1/../../../../arm-atollic-eabi/lib/armv7-m\libc_nano.a(lib_a-wbuf.o)
 .ARM.attributes
                0x00000c5f       0x2d c:/program files (x86)/atollic/truestudio for arm 7.0.0/armtools/bin/../lib/gcc/arm-atollic-eabi/5.3.1/../../../../arm-atollic-eabi/lib/armv7-m\libc_nano.a(lib_a-writer.o)
 .ARM.attributes
                0x00000c8c       0x2d c:/program files (x86)/atollic/truestudio for arm 7.0.0/armtools/bin/../lib/gcc/arm-atollic-eabi/5.3.1/../../../../arm-atollic-eabi/lib/armv7-m\libc_nano.a(lib_a-wsetup.o)
 .ARM.attributes
                0x00000cb9       0x2d c:/program files (x86)/atollic/truestudio for arm 7.0.0/armtools/bin/../lib/gcc/arm-atollic-eabi/5.3.1/../../../../arm-atollic-eabi/lib/armv7-m\libc_nano.a(lib_a-closer.o)
 .ARM.attributes
                0x00000ce6       0x2d c:/program files (x86)/atollic/truestudio for arm 7.0.0/armtools/bin/../lib/gcc/arm-atollic-eabi/5.3.1/../../../../arm-atollic-eabi/lib/armv7-m\libc_nano.a(lib_a-fflush.o)
 .ARM.attributes
                0x00000d13       0x2d c:/program files (x86)/atollic/truestudio for arm 7.0.0/armtools/bin/../lib/gcc/arm-atollic-eabi/5.3.1/../../../../arm-atollic-eabi/lib/armv7-m\libc_nano.a(lib_a-lseekr.o)
 .ARM.attributes
                0x00000d40       0x2d c:/program files (x86)/atollic/truestudio for arm 7.0.0/armtools/bin/../lib/gcc/arm-atollic-eabi/5.3.1/../../../../arm-atollic-eabi/lib/armv7-m\libc_nano.a(lib_a-makebuf.o)
 .ARM.attributes
                0x00000d6d       0x2d c:/program files (x86)/atollic/truestudio for arm 7.0.0/armtools/bin/../lib/gcc/arm-atollic-eabi/5.3.1/../../../../arm-atollic-eabi/lib/armv7-m\libc_nano.a(lib_a-memchr-stub.o)
 .ARM.attributes
                0x00000d9a       0x2d c:/program files (x86)/atollic/truestudio for arm 7.0.0/armtools/bin/../lib/gcc/arm-atollic-eabi/5.3.1/../../../../arm-atollic-eabi/lib/armv7-m\libc_nano.a(lib_a-readr.o)
 .ARM.attributes
                0x00000dc7       0x2d c:/program files (x86)/atollic/truestudio for arm 7.0.0/armtools/bin/../lib/gcc/arm-atollic-eabi/5.3.1/../../../../arm-atollic-eabi/lib/armv7-m\libc_nano.a(lib_a-fstatr.o)
 .ARM.attributes
                0x00000df4       0x2d c:/program files (x86)/atollic/truestudio for arm 7.0.0/armtools/bin/../lib/gcc/arm-atollic-eabi/5.3.1/../../../../arm-atollic-eabi/lib/armv7-m\libc_nano.a(lib_a-isattyr.o)
 .ARM.attributes
                0x00000e21       0x1d c:/program files (x86)/atollic/truestudio for arm 7.0.0/armtools/bin/../lib/gcc/arm-atollic-eabi/5.3.1/armv7-m\libgcc.a(_arm_addsubdf3.o)
 .ARM.attributes
                0x00000e3e       0x1d c:/program files (x86)/atollic/truestudio for arm 7.0.0/armtools/bin/../lib/gcc/arm-atollic-eabi/5.3.1/armv7-m\libgcc.a(_arm_muldivdf3.o)
 .ARM.attributes
                0x00000e5b       0x1d c:/program files (x86)/atollic/truestudio for arm 7.0.0/armtools/bin/../lib/gcc/arm-atollic-eabi/5.3.1/armv7-m\libgcc.a(_arm_fixunsdfsi.o)
 .ARM.attributes
                0x00000e78       0x1d c:/program files (x86)/atollic/truestudio for arm 7.0.0/armtools/bin/../lib/gcc/arm-atollic-eabi/5.3.1/armv7-m\libgcc.a(_arm_truncdfsf2.o)
 .ARM.attributes
                0x00000e95       0x1d c:/program files (x86)/atollic/truestudio for arm 7.0.0/armtools/bin/../lib/gcc/arm-atollic-eabi/5.3.1/armv7-m\libgcc.a(_arm_addsubsf3.o)
 .ARM.attributes
                0x00000eb2       0x1d c:/program files (x86)/atollic/truestudio for arm 7.0.0/armtools/bin/../lib/gcc/arm-atollic-eabi/5.3.1/armv7-m\libgcc.a(_arm_muldivsf3.o)
 .ARM.attributes
                0x00000ecf       0x1d c:/program files (x86)/atollic/truestudio for arm 7.0.0/armtools/bin/../lib/gcc/arm-atollic-eabi/5.3.1/armv7-m\libgcc.a(_arm_fixsfsi.o)
 .ARM.attributes
                0x00000eec       0x1d c:/program files (x86)/atollic/truestudio for arm 7.0.0/armtools/bin/../lib/gcc/arm-atollic-eabi/5.3.1/armv7-m\libgcc.a(_arm_fixunssfsi.o)
 .ARM.attributes
                0x00000f09       0x2d c:/program files (x86)/atollic/truestudio for arm 7.0.0/armtools/bin/../lib/gcc/arm-atollic-eabi/5.3.1/../../../../arm-atollic-eabi/lib/armv7-m\libnosys.a(close.o)
 .ARM.attributes
                0x00000f36       0x2d c:/program files (x86)/atollic/truestudio for arm 7.0.0/armtools/bin/../lib/gcc/arm-atollic-eabi/5.3.1/../../../../arm-atollic-eabi/lib/armv7-m\libnosys.a(fstat.o)
 .ARM.attributes
                0x00000f63       0x2d c:/program files (x86)/atollic/truestudio for arm 7.0.0/armtools/bin/../lib/gcc/arm-atollic-eabi/5.3.1/../../../../arm-atollic-eabi/lib/armv7-m\libnosys.a(isatty.o)
 .ARM.attributes
                0x00000f90       0x2d c:/program files (x86)/atollic/truestudio for arm 7.0.0/armtools/bin/../lib/gcc/arm-atollic-eabi/5.3.1/../../../../arm-atollic-eabi/lib/armv7-m\libnosys.a(lseek.o)
 .ARM.attributes
                0x00000fbd       0x2d c:/program files (x86)/atollic/truestudio for arm 7.0.0/armtools/bin/../lib/gcc/arm-atollic-eabi/5.3.1/../../../../arm-atollic-eabi/lib/armv7-m\libnosys.a(read.o)
 .ARM.attributes
                0x00000fea       0x2d c:/program files (x86)/atollic/truestudio for arm 7.0.0/armtools/bin/../lib/gcc/arm-atollic-eabi/5.3.1/../../../../arm-atollic-eabi/lib/armv7-m\libnosys.a(sbrk.o)
 .ARM.attributes
                0x00001017       0x2d c:/program files (x86)/atollic/truestudio for arm 7.0.0/armtools/bin/../lib/gcc/arm-atollic-eabi/5.3.1/../../../../arm-atollic-eabi/lib/armv7-m\libnosys.a(write.o)
 .ARM.attributes
                0x00001044       0x1d c:/program files (x86)/atollic/truestudio for arm 7.0.0/armtools/bin/../lib/gcc/arm-atollic-eabi/5.3.1/armv7-m/crtn.o
OUTPUT(ambox-i-o.elf elf32-littlearm)

.debug_info     0x00000000    0x124e2
 .debug_info    0x00000000      0x567 ASW_Task\src\ADCT_BGS_BSW_Task.o
 .debug_info    0x00000567      0x466 Apps\src\ADCT_BGS_Bare_state.o
 .debug_info    0x000009cd      0xd7e Apps\src\ADCT_BGS_Modbus.o
 .debug_info    0x0000174b      0x721 Apps\src\ADCT_BGS_State.o
 .debug_info    0x00001e6c      0x9a3 Apps\src\ADCT_BGS_System.o
 .debug_info    0x0000280f      0x76f BSP\AM2302\src\ADCT_DHT22.o
 .debug_info    0x00002f7e      0x5d0 BSP\AM2302\src\ADCT_DHT22_exti.o
 .debug_info    0x0000354e      0xa6d BSP\AT24C64\src\ADCT_AT24C64.o
 .debug_info    0x00003fbb      0x2a8 BSP\BUTTON\src\ADCT_BGS_BUTTON.o
 .debug_info    0x00004263      0x4a7 BSP\BUTTON\src\tm_stm32_button.o
 .debug_info    0x0000470a      0x311 BSP\MODBUS\modbus\functions\mbfunccoils.o
 .debug_info    0x00004a1b      0x1f0 BSP\MODBUS\modbus\functions\mbfuncdisc.o
 .debug_info    0x00004c0b      0x37d BSP\MODBUS\modbus\functions\mbfuncholding.o
 .debug_info    0x00004f88      0x1e2 BSP\MODBUS\modbus\functions\mbfuncinput.o
 .debug_info    0x0000516a      0x24f BSP\MODBUS\modbus\functions\mbfuncother.o
 .debug_info    0x000053b9      0x2a6 BSP\MODBUS\modbus\functions\mbutils.o
 .debug_info    0x0000565f      0x613 BSP\MODBUS\modbus\mb.o
 .debug_info    0x00005c72      0x15e BSP\MODBUS\modbus\rtu\mbcrc.o
 .debug_info    0x00005dd0      0x5f5 BSP\MODBUS\modbus\rtu\mbrtu.o
 .debug_info    0x000063c5      0x177 BSP\MODBUS\port\portevent.o
 .debug_info    0x0000653c      0x681 BSP\MODBUS\port\portserial.o
 .debug_info    0x00006bbd      0x5bf BSP\MODBUS\port\porttimer.o
 .debug_info    0x0000717c     0x116b BSP\PZEM004T\src\PZEM004T.o
 .debug_info    0x000082e7      0x1bd BSP\PZEM004T\src\fifo.o
 .debug_info    0x000084a4      0x56d BSP\PhSensor\src\ADCT_PhSensor.o
 .debug_info    0x00008a11      0x224 BSP\RELAY\src\ADCT_Relay.o
 .debug_info    0x00008c35      0x925 BSP\RTC\src\ADCT_RTC.o
 .debug_info    0x0000955a      0x224 BSP\SENSOR\src\ADCT_Sensor.o
 .debug_info    0x0000977e      0xb93 BSP\delay\src\ADCT_BGS_FPT_Delay.o
 .debug_info    0x0000a311      0x55a Libraries\STM32F10x_StdPeriph_Driver\src\misc.o
 .debug_info    0x0000a86b      0xb80 Libraries\STM32F10x_StdPeriph_Driver\src\stm32f10x_adc.o
 .debug_info    0x0000b3eb      0x7a9 Libraries\STM32F10x_StdPeriph_Driver\src\stm32f10x_bkp.o
 .debug_info    0x0000bb94      0x47f Libraries\STM32F10x_StdPeriph_Driver\src\stm32f10x_dma.o
 .debug_info    0x0000c013      0x355 Libraries\STM32F10x_StdPeriph_Driver\src\stm32f10x_exti.o
 .debug_info    0x0000c368      0x7c1 Libraries\STM32F10x_StdPeriph_Driver\src\stm32f10x_flash.o
 .debug_info    0x0000cb29      0x6fa Libraries\STM32F10x_StdPeriph_Driver\src\stm32f10x_gpio.o
 .debug_info    0x0000d223      0xb10 Libraries\STM32F10x_StdPeriph_Driver\src\stm32f10x_i2c.o
 .debug_info    0x0000dd33      0x4a3 Libraries\STM32F10x_StdPeriph_Driver\src\stm32f10x_pwr.o
 .debug_info    0x0000e1d6      0x8a7 Libraries\STM32F10x_StdPeriph_Driver\src\stm32f10x_rcc.o
 .debug_info    0x0000ea7d      0x45f Libraries\STM32F10x_StdPeriph_Driver\src\stm32f10x_rtc.o
 .debug_info    0x0000eedc     0x1c64 Libraries\STM32F10x_StdPeriph_Driver\src\stm32f10x_tim.o
 .debug_info    0x00010b40      0x9f4 Libraries\STM32F10x_StdPeriph_Driver\src\stm32f10x_usart.o
 .debug_info    0x00011534      0x973 src\main.o
 .debug_info    0x00011ea7       0x68 src\startup_stm32f10x_md.o
 .debug_info    0x00011f0f      0x133 src\stm32f1xx_it.o
 .debug_info    0x00012042      0x4a0 src\system_stm32f10x.o

.debug_abbrev   0x00000000     0x41ce
 .debug_abbrev  0x00000000      0x1ac ASW_Task\src\ADCT_BGS_BSW_Task.o
 .debug_abbrev  0x000001ac      0x15f Apps\src\ADCT_BGS_Bare_state.o
 .debug_abbrev  0x0000030b      0x25b Apps\src\ADCT_BGS_Modbus.o
 .debug_abbrev  0x00000566      0x1aa Apps\src\ADCT_BGS_State.o
 .debug_abbrev  0x00000710      0x226 Apps\src\ADCT_BGS_System.o
 .debug_abbrev  0x00000936      0x207 BSP\AM2302\src\ADCT_DHT22.o
 .debug_abbrev  0x00000b3d      0x1b8 BSP\AM2302\src\ADCT_DHT22_exti.o
 .debug_abbrev  0x00000cf5      0x24c BSP\AT24C64\src\ADCT_AT24C64.o
 .debug_abbrev  0x00000f41      0x110 BSP\BUTTON\src\ADCT_BGS_BUTTON.o
 .debug_abbrev  0x00001051      0x1ac BSP\BUTTON\src\tm_stm32_button.o
 .debug_abbrev  0x000011fd       0xbc BSP\MODBUS\modbus\functions\mbfunccoils.o
 .debug_abbrev  0x000012b9       0xaa BSP\MODBUS\modbus\functions\mbfuncdisc.o
 .debug_abbrev  0x00001363       0xaa BSP\MODBUS\modbus\functions\mbfuncholding.o
 .debug_abbrev  0x0000140d       0xaa BSP\MODBUS\modbus\functions\mbfuncinput.o
 .debug_abbrev  0x000014b7       0xc3 BSP\MODBUS\modbus\functions\mbfuncother.o
 .debug_abbrev  0x0000157a       0xc4 BSP\MODBUS\modbus\functions\mbutils.o
 .debug_abbrev  0x0000163e      0x1a4 BSP\MODBUS\modbus\mb.o
 .debug_abbrev  0x000017e2       0xab BSP\MODBUS\modbus\rtu\mbcrc.o
 .debug_abbrev  0x0000188d      0x16f BSP\MODBUS\modbus\rtu\mbrtu.o
 .debug_abbrev  0x000019fc       0xc4 BSP\MODBUS\port\portevent.o
 .debug_abbrev  0x00001ac0      0x17c BSP\MODBUS\port\portserial.o
 .debug_abbrev  0x00001c3c      0x153 BSP\MODBUS\port\porttimer.o
 .debug_abbrev  0x00001d8f      0x309 BSP\PZEM004T\src\PZEM004T.o
 .debug_abbrev  0x00002098       0xdb BSP\PZEM004T\src\fifo.o
 .debug_abbrev  0x00002173      0x196 BSP\PhSensor\src\ADCT_PhSensor.o
 .debug_abbrev  0x00002309       0xf3 BSP\RELAY\src\ADCT_Relay.o
 .debug_abbrev  0x000023fc      0x20b BSP\RTC\src\ADCT_RTC.o
 .debug_abbrev  0x00002607       0xf3 BSP\SENSOR\src\ADCT_Sensor.o
 .debug_abbrev  0x000026fa      0x31c BSP\delay\src\ADCT_BGS_FPT_Delay.o
 .debug_abbrev  0x00002a16      0x149 Libraries\STM32F10x_StdPeriph_Driver\src\misc.o
 .debug_abbrev  0x00002b5f      0x19c Libraries\STM32F10x_StdPeriph_Driver\src\stm32f10x_adc.o
 .debug_abbrev  0x00002cfb      0x167 Libraries\STM32F10x_StdPeriph_Driver\src\stm32f10x_bkp.o
 .debug_abbrev  0x00002e62      0x159 Libraries\STM32F10x_StdPeriph_Driver\src\stm32f10x_dma.o
 .debug_abbrev  0x00002fbb      0x157 Libraries\STM32F10x_StdPeriph_Driver\src\stm32f10x_exti.o
 .debug_abbrev  0x00003112      0x191 Libraries\STM32F10x_StdPeriph_Driver\src\stm32f10x_flash.o
 .debug_abbrev  0x000032a3      0x1ce Libraries\STM32F10x_StdPeriph_Driver\src\stm32f10x_gpio.o
 .debug_abbrev  0x00003471      0x168 Libraries\STM32F10x_StdPeriph_Driver\src\stm32f10x_i2c.o
 .debug_abbrev  0x000035d9      0x183 Libraries\STM32F10x_StdPeriph_Driver\src\stm32f10x_pwr.o
 .debug_abbrev  0x0000375c      0x1be Libraries\STM32F10x_StdPeriph_Driver\src\stm32f10x_rcc.o
 .debug_abbrev  0x0000391a      0x191 Libraries\STM32F10x_StdPeriph_Driver\src\stm32f10x_rtc.o
 .debug_abbrev  0x00003aab      0x1b4 Libraries\STM32F10x_StdPeriph_Driver\src\stm32f10x_tim.o
 .debug_abbrev  0x00003c5f      0x166 Libraries\STM32F10x_StdPeriph_Driver\src\stm32f10x_usart.o
 .debug_abbrev  0x00003dc5      0x228 src\main.o
 .debug_abbrev  0x00003fed       0x12 src\startup_stm32f10x_md.o
 .debug_abbrev  0x00003fff       0x7f src\stm32f1xx_it.o
 .debug_abbrev  0x0000407e      0x150 src\system_stm32f10x.o

.debug_aranges  0x00000000     0x1580
 .debug_aranges
                0x00000000       0x58 ASW_Task\src\ADCT_BGS_BSW_Task.o
 .debug_aranges
                0x00000058       0x68 Apps\src\ADCT_BGS_Bare_state.o
 .debug_aranges
                0x000000c0       0x78 Apps\src\ADCT_BGS_Modbus.o
 .debug_aranges
                0x00000138       0x68 Apps\src\ADCT_BGS_State.o
 .debug_aranges
                0x000001a0       0x50 Apps\src\ADCT_BGS_System.o
 .debug_aranges
                0x000001f0       0x80 BSP\AM2302\src\ADCT_DHT22.o
 .debug_aranges
                0x00000270       0x70 BSP\AM2302\src\ADCT_DHT22_exti.o
 .debug_aranges
                0x000002e0       0xa8 BSP\AT24C64\src\ADCT_AT24C64.o
 .debug_aranges
                0x00000388       0x20 BSP\BUTTON\src\ADCT_BGS_BUTTON.o
 .debug_aranges
                0x000003a8       0x38 BSP\BUTTON\src\tm_stm32_button.o
 .debug_aranges
                0x000003e0       0x30 BSP\MODBUS\modbus\functions\mbfunccoils.o
 .debug_aranges
                0x00000410       0x20 BSP\MODBUS\modbus\functions\mbfuncdisc.o
 .debug_aranges
                0x00000430       0x38 BSP\MODBUS\modbus\functions\mbfuncholding.o
 .debug_aranges
                0x00000468       0x20 BSP\MODBUS\modbus\functions\mbfuncinput.o
 .debug_aranges
                0x00000488       0x28 BSP\MODBUS\modbus\functions\mbfuncother.o
 .debug_aranges
                0x000004b0       0x30 BSP\MODBUS\modbus\functions\mbutils.o
 .debug_aranges
                0x000004e0       0x48 BSP\MODBUS\modbus\mb.o
 .debug_aranges
                0x00000528       0x20 BSP\MODBUS\modbus\rtu\mbcrc.o
 .debug_aranges
                0x00000548       0x58 BSP\MODBUS\modbus\rtu\mbrtu.o
 .debug_aranges
                0x000005a0       0x30 BSP\MODBUS\port\portevent.o
 .debug_aranges
                0x000005d0       0x40 BSP\MODBUS\port\portserial.o
 .debug_aranges
                0x00000610       0x38 BSP\MODBUS\port\porttimer.o
 .debug_aranges
                0x00000648       0xe0 BSP\PZEM004T\src\PZEM004T.o
 .debug_aranges
                0x00000728       0x38 BSP\PZEM004T\src\fifo.o
 .debug_aranges
                0x00000760       0x40 BSP\PhSensor\src\ADCT_PhSensor.o
 .debug_aranges
                0x000007a0       0x20 BSP\RELAY\src\ADCT_Relay.o
 .debug_aranges
                0x000007c0       0xa0 BSP\RTC\src\ADCT_RTC.o
 .debug_aranges
                0x00000860       0x20 BSP\SENSOR\src\ADCT_Sensor.o
 .debug_aranges
                0x00000880       0x90 BSP\delay\src\ADCT_BGS_FPT_Delay.o
 .debug_aranges
                0x00000910       0x40 Libraries\STM32F10x_StdPeriph_Driver\src\misc.o
 .debug_aranges
                0x00000950      0x138 Libraries\STM32F10x_StdPeriph_Driver\src\stm32f10x_adc.o
 .debug_aranges
                0x00000a88       0x78 Libraries\STM32F10x_StdPeriph_Driver\src\stm32f10x_bkp.o
 .debug_aranges
                0x00000b00       0x70 Libraries\STM32F10x_StdPeriph_Driver\src\stm32f10x_dma.o
 .debug_aranges
                0x00000b70       0x58 Libraries\STM32F10x_StdPeriph_Driver\src\stm32f10x_exti.o
 .debug_aranges
                0x00000bc8       0xf8 Libraries\STM32F10x_StdPeriph_Driver\src\stm32f10x_flash.o
 .debug_aranges
                0x00000cc0       0xa8 Libraries\STM32F10x_StdPeriph_Driver\src\stm32f10x_gpio.o
 .debug_aranges
                0x00000d68      0x120 Libraries\STM32F10x_StdPeriph_Driver\src\stm32f10x_i2c.o
 .debug_aranges
                0x00000e88       0x60 Libraries\STM32F10x_StdPeriph_Driver\src\stm32f10x_pwr.o
 .debug_aranges
                0x00000ee8      0x118 Libraries\STM32F10x_StdPeriph_Driver\src\stm32f10x_rcc.o
 .debug_aranges
                0x00001000       0x88 Libraries\STM32F10x_StdPeriph_Driver\src\stm32f10x_rtc.o
 .debug_aranges
                0x00001088      0x2f0 Libraries\STM32F10x_StdPeriph_Driver\src\stm32f10x_tim.o
 .debug_aranges
                0x00001378      0x100 Libraries\STM32F10x_StdPeriph_Driver\src\stm32f10x_usart.o
 .debug_aranges
                0x00001478       0x48 src\main.o
 .debug_aranges
                0x000014c0       0x28 src\startup_stm32f10x_md.o
 .debug_aranges
                0x000014e8       0x60 src\stm32f1xx_it.o
 .debug_aranges
                0x00001548       0x38 src\system_stm32f10x.o

.debug_ranges   0x00000000     0x12a8
 .debug_ranges  0x00000000       0x48 ASW_Task\src\ADCT_BGS_BSW_Task.o
 .debug_ranges  0x00000048       0x58 Apps\src\ADCT_BGS_Bare_state.o
 .debug_ranges  0x000000a0       0x68 Apps\src\ADCT_BGS_Modbus.o
 .debug_ranges  0x00000108       0x58 Apps\src\ADCT_BGS_State.o
 .debug_ranges  0x00000160       0x40 Apps\src\ADCT_BGS_System.o
 .debug_ranges  0x000001a0       0x70 BSP\AM2302\src\ADCT_DHT22.o
 .debug_ranges  0x00000210       0x60 BSP\AM2302\src\ADCT_DHT22_exti.o
 .debug_ranges  0x00000270       0x98 BSP\AT24C64\src\ADCT_AT24C64.o
 .debug_ranges  0x00000308       0x10 BSP\BUTTON\src\ADCT_BGS_BUTTON.o
 .debug_ranges  0x00000318       0x28 BSP\BUTTON\src\tm_stm32_button.o
 .debug_ranges  0x00000340       0x20 BSP\MODBUS\modbus\functions\mbfunccoils.o
 .debug_ranges  0x00000360       0x10 BSP\MODBUS\modbus\functions\mbfuncdisc.o
 .debug_ranges  0x00000370       0x28 BSP\MODBUS\modbus\functions\mbfuncholding.o
 .debug_ranges  0x00000398       0x10 BSP\MODBUS\modbus\functions\mbfuncinput.o
 .debug_ranges  0x000003a8       0x18 BSP\MODBUS\modbus\functions\mbfuncother.o
 .debug_ranges  0x000003c0       0x20 BSP\MODBUS\modbus\functions\mbutils.o
 .debug_ranges  0x000003e0       0x38 BSP\MODBUS\modbus\mb.o
 .debug_ranges  0x00000418       0x10 BSP\MODBUS\modbus\rtu\mbcrc.o
 .debug_ranges  0x00000428       0x48 BSP\MODBUS\modbus\rtu\mbrtu.o
 .debug_ranges  0x00000470       0x20 BSP\MODBUS\port\portevent.o
 .debug_ranges  0x00000490       0x30 BSP\MODBUS\port\portserial.o
 .debug_ranges  0x000004c0       0x28 BSP\MODBUS\port\porttimer.o
 .debug_ranges  0x000004e8       0xd0 BSP\PZEM004T\src\PZEM004T.o
 .debug_ranges  0x000005b8       0x28 BSP\PZEM004T\src\fifo.o
 .debug_ranges  0x000005e0       0x30 BSP\PhSensor\src\ADCT_PhSensor.o
 .debug_ranges  0x00000610       0x10 BSP\RELAY\src\ADCT_Relay.o
 .debug_ranges  0x00000620       0x90 BSP\RTC\src\ADCT_RTC.o
 .debug_ranges  0x000006b0       0x10 BSP\SENSOR\src\ADCT_Sensor.o
 .debug_ranges  0x000006c0       0x80 BSP\delay\src\ADCT_BGS_FPT_Delay.o
 .debug_ranges  0x00000740       0x30 Libraries\STM32F10x_StdPeriph_Driver\src\misc.o
 .debug_ranges  0x00000770      0x128 Libraries\STM32F10x_StdPeriph_Driver\src\stm32f10x_adc.o
 .debug_ranges  0x00000898       0x68 Libraries\STM32F10x_StdPeriph_Driver\src\stm32f10x_bkp.o
 .debug_ranges  0x00000900       0x60 Libraries\STM32F10x_StdPeriph_Driver\src\stm32f10x_dma.o
 .debug_ranges  0x00000960       0x48 Libraries\STM32F10x_StdPeriph_Driver\src\stm32f10x_exti.o
 .debug_ranges  0x000009a8       0xe8 Libraries\STM32F10x_StdPeriph_Driver\src\stm32f10x_flash.o
 .debug_ranges  0x00000a90       0x98 Libraries\STM32F10x_StdPeriph_Driver\src\stm32f10x_gpio.o
 .debug_ranges  0x00000b28      0x110 Libraries\STM32F10x_StdPeriph_Driver\src\stm32f10x_i2c.o
 .debug_ranges  0x00000c38       0x50 Libraries\STM32F10x_StdPeriph_Driver\src\stm32f10x_pwr.o
 .debug_ranges  0x00000c88      0x108 Libraries\STM32F10x_StdPeriph_Driver\src\stm32f10x_rcc.o
 .debug_ranges  0x00000d90       0x78 Libraries\STM32F10x_StdPeriph_Driver\src\stm32f10x_rtc.o
 .debug_ranges  0x00000e08      0x2e0 Libraries\STM32F10x_StdPeriph_Driver\src\stm32f10x_tim.o
 .debug_ranges  0x000010e8       0xf0 Libraries\STM32F10x_StdPeriph_Driver\src\stm32f10x_usart.o
 .debug_ranges  0x000011d8       0x38 src\main.o
 .debug_ranges  0x00001210       0x20 src\startup_stm32f10x_md.o
 .debug_ranges  0x00001230       0x50 src\stm32f1xx_it.o
 .debug_ranges  0x00001280       0x28 src\system_stm32f10x.o

.debug_line     0x00000000     0xa5c8
 .debug_line    0x00000000      0x325 ASW_Task\src\ADCT_BGS_BSW_Task.o
 .debug_line    0x00000325      0x310 Apps\src\ADCT_BGS_Bare_state.o
 .debug_line    0x00000635      0x4c6 Apps\src\ADCT_BGS_Modbus.o
 .debug_line    0x00000afb      0x3b9 Apps\src\ADCT_BGS_State.o
 .debug_line    0x00000eb4      0x610 Apps\src\ADCT_BGS_System.o
 .debug_line    0x000014c4      0x49b BSP\AM2302\src\ADCT_DHT22.o
 .debug_line    0x0000195f      0x3a6 BSP\AM2302\src\ADCT_DHT22_exti.o
 .debug_line    0x00001d05      0x5c3 BSP\AT24C64\src\ADCT_AT24C64.o
 .debug_line    0x000022c8      0x238 BSP\BUTTON\src\ADCT_BGS_BUTTON.o
 .debug_line    0x00002500      0x352 BSP\BUTTON\src\tm_stm32_button.o
 .debug_line    0x00002852      0x298 BSP\MODBUS\modbus\functions\mbfunccoils.o
 .debug_line    0x00002aea      0x233 BSP\MODBUS\modbus\functions\mbfuncdisc.o
 .debug_line    0x00002d1d      0x2c6 BSP\MODBUS\modbus\functions\mbfuncholding.o
 .debug_line    0x00002fe3      0x229 BSP\MODBUS\modbus\functions\mbfuncinput.o
 .debug_line    0x0000320c      0x2b4 BSP\MODBUS\modbus\functions\mbfuncother.o
 .debug_line    0x000034c0      0x248 BSP\MODBUS\modbus\functions\mbutils.o
 .debug_line    0x00003708      0x352 BSP\MODBUS\modbus\mb.o
 .debug_line    0x00003a5a      0x1bb BSP\MODBUS\modbus\rtu\mbcrc.o
 .debug_line    0x00003c15      0x3a7 BSP\MODBUS\modbus\rtu\mbrtu.o
 .debug_line    0x00003fbc      0x221 BSP\MODBUS\port\portevent.o
 .debug_line    0x000041dd      0x31c BSP\MODBUS\port\portserial.o
 .debug_line    0x000044f9      0x2cf BSP\MODBUS\port\porttimer.o
 .debug_line    0x000047c8      0x634 BSP\PZEM004T\src\PZEM004T.o
 .debug_line    0x00004dfc      0x1b3 BSP\PZEM004T\src\fifo.o
 .debug_line    0x00004faf      0x322 BSP\PhSensor\src\ADCT_PhSensor.o
 .debug_line    0x000052d1      0x254 BSP\RELAY\src\ADCT_Relay.o
 .debug_line    0x00005525      0x611 BSP\RTC\src\ADCT_RTC.o
 .debug_line    0x00005b36      0x238 BSP\SENSOR\src\ADCT_Sensor.o
 .debug_line    0x00005d6e      0x40c BSP\delay\src\ADCT_BGS_FPT_Delay.o
 .debug_line    0x0000617a      0x299 Libraries\STM32F10x_StdPeriph_Driver\src\misc.o
 .debug_line    0x00006413      0x590 Libraries\STM32F10x_StdPeriph_Driver\src\stm32f10x_adc.o
 .debug_line    0x000069a3      0x2c5 Libraries\STM32F10x_StdPeriph_Driver\src\stm32f10x_bkp.o
 .debug_line    0x00006c68      0x38e Libraries\STM32F10x_StdPeriph_Driver\src\stm32f10x_dma.o
 .debug_line    0x00006ff6      0x2fc Libraries\STM32F10x_StdPeriph_Driver\src\stm32f10x_exti.o
 .debug_line    0x000072f2      0x522 Libraries\STM32F10x_StdPeriph_Driver\src\stm32f10x_flash.o
 .debug_line    0x00007814      0x426 Libraries\STM32F10x_StdPeriph_Driver\src\stm32f10x_gpio.o
 .debug_line    0x00007c3a      0x53b Libraries\STM32F10x_StdPeriph_Driver\src\stm32f10x_i2c.o
 .debug_line    0x00008175      0x2b9 Libraries\STM32F10x_StdPeriph_Driver\src\stm32f10x_pwr.o
 .debug_line    0x0000842e      0x521 Libraries\STM32F10x_StdPeriph_Driver\src\stm32f10x_rcc.o
 .debug_line    0x0000894f      0x30e Libraries\STM32F10x_StdPeriph_Driver\src\stm32f10x_rtc.o
 .debug_line    0x00008c5d      0xba6 Libraries\STM32F10x_StdPeriph_Driver\src\stm32f10x_tim.o
 .debug_line    0x00009803      0x508 Libraries\STM32F10x_StdPeriph_Driver\src\stm32f10x_usart.o
 .debug_line    0x00009d0b      0x3d2 src\main.o
 .debug_line    0x0000a0dd       0x7c src\startup_stm32f10x_md.o
 .debug_line    0x0000a159      0x205 src\stm32f1xx_it.o
 .debug_line    0x0000a35e      0x26a src\system_stm32f10x.o

.debug_str      0x00000000     0x6ac3
 .debug_str     0x00000000      0x50e ASW_Task\src\ADCT_BGS_BSW_Task.o
                                0x593 (size before relaxing)
 .debug_str     0x0000050e      0x2f6 Apps\src\ADCT_BGS_Bare_state.o
                                0x534 (size before relaxing)
 .debug_str     0x00000804      0xc1a Apps\src\ADCT_BGS_Modbus.o
                               0x1034 (size before relaxing)
 .debug_str     0x0000141e      0x293 Apps\src\ADCT_BGS_State.o
                                0x803 (size before relaxing)
 .debug_str     0x000016b1      0x1a0 Apps\src\ADCT_BGS_System.o
                                0xb28 (size before relaxing)
 .debug_str     0x00001851      0x3ce BSP\AM2302\src\ADCT_DHT22.o
                                0x634 (size before relaxing)
 .debug_str     0x00001c1f      0x54b BSP\AM2302\src\ADCT_DHT22_exti.o
                                0x74f (size before relaxing)
 .debug_str     0x0000216a      0x4ba BSP\AT24C64\src\ADCT_AT24C64.o
                                0xb53 (size before relaxing)
 .debug_str     0x00002624       0x66 BSP\BUTTON\src\ADCT_BGS_BUTTON.o
                                0x352 (size before relaxing)
 .debug_str     0x0000268a       0xc6 BSP\BUTTON\src\tm_stm32_button.o
                                0x4e4 (size before relaxing)
 .debug_str     0x00002750      0x1cd BSP\MODBUS\modbus\functions\mbfunccoils.o
                                0x3d7 (size before relaxing)
 .debug_str     0x0000291d       0x54 BSP\MODBUS\modbus\functions\mbfuncdisc.o
                                0x36f (size before relaxing)
 .debug_str     0x00002971      0x122 BSP\MODBUS\modbus\functions\mbfuncholding.o
                                0x44d (size before relaxing)
 .debug_str     0x00002a93       0x46 BSP\MODBUS\modbus\functions\mbfuncinput.o
                                0x363 (size before relaxing)
 .debug_str     0x00002ad9       0xaa BSP\MODBUS\modbus\functions\mbfuncother.o
                                0x398 (size before relaxing)
 .debug_str     0x00002b83       0xbf BSP\MODBUS\modbus\functions\mbutils.o
                                0x39e (size before relaxing)
 .debug_str     0x00002c42      0x2a2 BSP\MODBUS\modbus\mb.o
                                0x611 (size before relaxing)
 .debug_str     0x00002ee4       0x44 BSP\MODBUS\modbus\rtu\mbcrc.o
                                0x1de (size before relaxing)
 .debug_str     0x00002f28      0x1ab BSP\MODBUS\modbus\rtu\mbrtu.o
                                0x4d8 (size before relaxing)
 .debug_str     0x000030d3       0x7b BSP\MODBUS\port\portevent.o
                                0x236 (size before relaxing)
 .debug_str     0x0000314e      0x137 BSP\MODBUS\port\portserial.o
                                0x86c (size before relaxing)
 .debug_str     0x00003285      0x1ae BSP\MODBUS\port\porttimer.o
                                0x746 (size before relaxing)
 .debug_str     0x00003433      0x400 BSP\PZEM004T\src\PZEM004T.o
                                0xd94 (size before relaxing)
 .debug_str     0x00003833       0x49 BSP\PZEM004T\src\fifo.o
                                0x1e7 (size before relaxing)
 .debug_str     0x0000387c      0x19f BSP\PhSensor\src\ADCT_PhSensor.o
                                0x4a8 (size before relaxing)
 .debug_str     0x00003a1b       0x2e BSP\RELAY\src\ADCT_Relay.o
                                0x2fe (size before relaxing)
 .debug_str     0x00003a49      0x2e9 BSP\RTC\src\ADCT_RTC.o
                                0x8fb (size before relaxing)
 .debug_str     0x00003d32       0x3b BSP\SENSOR\src\ADCT_Sensor.o
                                0x30b (size before relaxing)
 .debug_str     0x00003d6d      0x25b BSP\delay\src\ADCT_BGS_FPT_Delay.o
                                0x8ac (size before relaxing)
 .debug_str     0x00003fc8      0x108 Libraries\STM32F10x_StdPeriph_Driver\src\misc.o
                                0x402 (size before relaxing)
 .debug_str     0x000040d0      0x478 Libraries\STM32F10x_StdPeriph_Driver\src\stm32f10x_adc.o
                                0x73f (size before relaxing)
 .debug_str     0x00004548      0x325 Libraries\STM32F10x_StdPeriph_Driver\src\stm32f10x_bkp.o
                                0x5f9 (size before relaxing)
 .debug_str     0x0000486d      0x13a Libraries\STM32F10x_StdPeriph_Driver\src\stm32f10x_dma.o
                                0x3fb (size before relaxing)
 .debug_str     0x000049a7       0xf3 Libraries\STM32F10x_StdPeriph_Driver\src\stm32f10x_exti.o
                                0x38d (size before relaxing)
 .debug_str     0x00004a9a      0x415 Libraries\STM32F10x_StdPeriph_Driver\src\stm32f10x_flash.o
                                0x62c (size before relaxing)
 .debug_str     0x00004eaf      0x254 Libraries\STM32F10x_StdPeriph_Driver\src\stm32f10x_gpio.o
                                0x55d (size before relaxing)
 .debug_str     0x00005103      0x396 Libraries\STM32F10x_StdPeriph_Driver\src\stm32f10x_i2c.o
                                0x6aa (size before relaxing)
 .debug_str     0x00005499      0x11b Libraries\STM32F10x_StdPeriph_Driver\src\stm32f10x_pwr.o
                                0x366 (size before relaxing)
 .debug_str     0x000055b4      0x3d0 Libraries\STM32F10x_StdPeriph_Driver\src\stm32f10x_rcc.o
                                0x65e (size before relaxing)
 .debug_str     0x00005984      0x187 Libraries\STM32F10x_StdPeriph_Driver\src\stm32f10x_rtc.o
                                0x3f2 (size before relaxing)
 .debug_str     0x00005b0b      0xa5a Libraries\STM32F10x_StdPeriph_Driver\src\stm32f10x_tim.o
                                0xe21 (size before relaxing)
 .debug_str     0x00006565      0x39d Libraries\STM32F10x_StdPeriph_Driver\src\stm32f10x_usart.o
                                0x6d4 (size before relaxing)
 .debug_str     0x00006902       0xc4 src\main.o
                                0x847 (size before relaxing)
 .debug_str     0x000069c6       0xa6 src\stm32f1xx_it.o
                                0x20f (size before relaxing)
 .debug_str     0x00006a6c       0x57 src\system_stm32f10x.o
                                0x30f (size before relaxing)

.comment        0x00000000       0x7e
 .comment       0x00000000       0x7e ASW_Task\src\ADCT_BGS_BSW_Task.o
                                 0x7f (size before relaxing)
 .comment       0x0000007e       0x7f Apps\src\ADCT_BGS_Bare_state.o
 .comment       0x0000007e       0x7f Apps\src\ADCT_BGS_Modbus.o
 .comment       0x0000007e       0x7f Apps\src\ADCT_BGS_State.o
 .comment       0x0000007e       0x7f Apps\src\ADCT_BGS_System.o
 .comment       0x0000007e       0x7f BSP\AM2302\src\ADCT_DHT22.o
 .comment       0x0000007e       0x7f BSP\AM2302\src\ADCT_DHT22_exti.o
 .comment       0x0000007e       0x7f BSP\AT24C64\src\ADCT_AT24C64.o
 .comment       0x0000007e       0x7f BSP\BUTTON\src\ADCT_BGS_BUTTON.o
 .comment       0x0000007e       0x7f BSP\BUTTON\src\tm_stm32_button.o
 .comment       0x0000007e       0x7f BSP\MODBUS\modbus\functions\mbfunccoils.o
 .comment       0x0000007e       0x7f BSP\MODBUS\modbus\functions\mbfuncdisc.o
 .comment       0x0000007e       0x7f BSP\MODBUS\modbus\functions\mbfuncholding.o
 .comment       0x0000007e       0x7f BSP\MODBUS\modbus\functions\mbfuncinput.o
 .comment       0x0000007e       0x7f BSP\MODBUS\modbus\functions\mbfuncother.o
 .comment       0x0000007e       0x7f BSP\MODBUS\modbus\functions\mbutils.o
 .comment       0x0000007e       0x7f BSP\MODBUS\modbus\mb.o
 .comment       0x0000007e       0x7f BSP\MODBUS\modbus\rtu\mbcrc.o
 .comment       0x0000007e       0x7f BSP\MODBUS\modbus\rtu\mbrtu.o
 .comment       0x0000007e       0x7f BSP\MODBUS\port\portevent.o
 .comment       0x0000007e       0x7f BSP\MODBUS\port\portserial.o
 .comment       0x0000007e       0x7f BSP\MODBUS\port\porttimer.o
 .comment       0x0000007e       0x7f BSP\PZEM004T\src\PZEM004T.o
 .comment       0x0000007e       0x7f BSP\PZEM004T\src\fifo.o
 .comment       0x0000007e       0x7f BSP\PhSensor\src\ADCT_PhSensor.o
 .comment       0x0000007e       0x7f BSP\RELAY\src\ADCT_Relay.o
 .comment       0x0000007e       0x7f BSP\RTC\src\ADCT_RTC.o
 .comment       0x0000007e       0x7f BSP\SENSOR\src\ADCT_Sensor.o
 .comment       0x0000007e       0x7f BSP\delay\src\ADCT_BGS_FPT_Delay.o
 .comment       0x0000007e       0x7f Libraries\STM32F10x_StdPeriph_Driver\src\misc.o
 .comment       0x0000007e       0x7f Libraries\STM32F10x_StdPeriph_Driver\src\stm32f10x_adc.o
 .comment       0x0000007e       0x7f Libraries\STM32F10x_StdPeriph_Driver\src\stm32f10x_bkp.o
 .comment       0x0000007e       0x7f Libraries\STM32F10x_StdPeriph_Driver\src\stm32f10x_dma.o
 .comment       0x0000007e       0x7f Libraries\STM32F10x_StdPeriph_Driver\src\stm32f10x_exti.o
 .comment       0x0000007e       0x7f Libraries\STM32F10x_StdPeriph_Driver\src\stm32f10x_flash.o
 .comment       0x0000007e       0x7f Libraries\STM32F10x_StdPeriph_Driver\src\stm32f10x_gpio.o
 .comment       0x0000007e       0x7f Libraries\STM32F10x_StdPeriph_Driver\src\stm32f10x_i2c.o
 .comment       0x0000007e       0x7f Libraries\STM32F10x_StdPeriph_Driver\src\stm32f10x_pwr.o
 .comment       0x0000007e       0x7f Libraries\STM32F10x_StdPeriph_Driver\src\stm32f10x_rcc.o
 .comment       0x0000007e       0x7f Libraries\STM32F10x_StdPeriph_Driver\src\stm32f10x_rtc.o
 .comment       0x0000007e       0x7f Libraries\STM32F10x_StdPeriph_Driver\src\stm32f10x_tim.o
 .comment       0x0000007e       0x7f Libraries\STM32F10x_StdPeriph_Driver\src\stm32f10x_usart.o
 .comment       0x0000007e       0x7f src\main.o
 .comment       0x0000007e       0x7f src\stm32f1xx_it.o
 .comment       0x0000007e       0x7f src\system_stm32f10x.o

.debug_frame    0x00000000     0x5b64
 .debug_frame   0x00000000      0x13c ASW_Task\src\ADCT_BGS_BSW_Task.o
 .debug_frame   0x0000013c      0x160 Apps\src\ADCT_BGS_Bare_state.o
 .debug_frame   0x0000029c      0x1cc Apps\src\ADCT_BGS_Modbus.o
 .debug_frame   0x00000468      0x140 Apps\src\ADCT_BGS_State.o
 .debug_frame   0x000005a8      0x104 Apps\src\ADCT_BGS_System.o
 .debug_frame   0x000006ac      0x1f4 BSP\AM2302\src\ADCT_DHT22.o
 .debug_frame   0x000008a0      0x180 BSP\AM2302\src\ADCT_DHT22_exti.o
 .debug_frame   0x00000a20      0x27c BSP\AT24C64\src\ADCT_AT24C64.o
 .debug_frame   0x00000c9c       0x34 BSP\BUTTON\src\ADCT_BGS_BUTTON.o
 .debug_frame   0x00000cd0       0xa4 BSP\BUTTON\src\tm_stm32_button.o
 .debug_frame   0x00000d74       0x7c BSP\MODBUS\modbus\functions\mbfunccoils.o
 .debug_frame   0x00000df0       0x34 BSP\MODBUS\modbus\functions\mbfuncdisc.o
 .debug_frame   0x00000e24       0xa0 BSP\MODBUS\modbus\functions\mbfuncholding.o
 .debug_frame   0x00000ec4       0x34 BSP\MODBUS\modbus\functions\mbfuncinput.o
 .debug_frame   0x00000ef8       0x58 BSP\MODBUS\modbus\functions\mbfuncother.o
 .debug_frame   0x00000f50       0x88 BSP\MODBUS\modbus\functions\mbutils.o
 .debug_frame   0x00000fd8       0xec BSP\MODBUS\modbus\mb.o
 .debug_frame   0x000010c4       0x38 BSP\MODBUS\modbus\rtu\mbcrc.o
 .debug_frame   0x000010fc      0x120 BSP\MODBUS\modbus\rtu\mbrtu.o
 .debug_frame   0x0000121c       0x80 BSP\MODBUS\port\portevent.o
 .debug_frame   0x0000129c       0xbc BSP\MODBUS\port\portserial.o
 .debug_frame   0x00001358       0x88 BSP\MODBUS\port\porttimer.o
 .debug_frame   0x000013e0      0x3a4 BSP\PZEM004T\src\PZEM004T.o
 .debug_frame   0x00001784       0xa8 BSP\PZEM004T\src\fifo.o
 .debug_frame   0x0000182c       0xcc BSP\PhSensor\src\ADCT_PhSensor.o
 .debug_frame   0x000018f8       0x34 BSP\RELAY\src\ADCT_Relay.o
 .debug_frame   0x0000192c      0x274 BSP\RTC\src\ADCT_RTC.o
 .debug_frame   0x00001ba0       0x34 BSP\SENSOR\src\ADCT_Sensor.o
 .debug_frame   0x00001bd4      0x238 BSP\delay\src\ADCT_BGS_FPT_Delay.o
 .debug_frame   0x00001e0c       0xd8 Libraries\STM32F10x_StdPeriph_Driver\src\misc.o
 .debug_frame   0x00001ee4      0x5a4 Libraries\STM32F10x_StdPeriph_Driver\src\stm32f10x_adc.o
 .debug_frame   0x00002488      0x1c4 Libraries\STM32F10x_StdPeriph_Driver\src\stm32f10x_bkp.o
 .debug_frame   0x0000264c      0x1c8 Libraries\STM32F10x_StdPeriph_Driver\src\stm32f10x_dma.o
 .debug_frame   0x00002814      0x148 Libraries\STM32F10x_StdPeriph_Driver\src\stm32f10x_exti.o
 .debug_frame   0x0000295c      0x410 Libraries\STM32F10x_StdPeriph_Driver\src\stm32f10x_flash.o
 .debug_frame   0x00002d6c      0x2d0 Libraries\STM32F10x_StdPeriph_Driver\src\stm32f10x_gpio.o
 .debug_frame   0x0000303c      0x530 Libraries\STM32F10x_StdPeriph_Driver\src\stm32f10x_i2c.o
 .debug_frame   0x0000356c      0x164 Libraries\STM32F10x_StdPeriph_Driver\src\stm32f10x_pwr.o
 .debug_frame   0x000036d0      0x4f4 Libraries\STM32F10x_StdPeriph_Driver\src\stm32f10x_rcc.o
 .debug_frame   0x00003bc4      0x214 Libraries\STM32F10x_StdPeriph_Driver\src\stm32f10x_rtc.o
 .debug_frame   0x00003dd8      0xe2c Libraries\STM32F10x_StdPeriph_Driver\src\stm32f10x_tim.o
 .debug_frame   0x00004c04      0x490 Libraries\STM32F10x_StdPeriph_Driver\src\stm32f10x_usart.o
 .debug_frame   0x00005094       0xbc src\main.o
 .debug_frame   0x00005150      0x10c src\stm32f1xx_it.o
 .debug_frame   0x0000525c       0x98 src\system_stm32f10x.o
 .debug_frame   0x000052f4       0x2c c:/program files (x86)/atollic/truestudio for arm 7.0.0/armtools/bin/../lib/gcc/arm-atollic-eabi/5.3.1/../../../../arm-atollic-eabi/lib/armv7-m\libc_nano.a(lib_a-init.o)
 .debug_frame   0x00005320       0x30 c:/program files (x86)/atollic/truestudio for arm 7.0.0/armtools/bin/../lib/gcc/arm-atollic-eabi/5.3.1/../../../../arm-atollic-eabi/lib/armv7-m\libc_nano.a(lib_a-malloc.o)
 .debug_frame   0x00005350       0x28 c:/program files (x86)/atollic/truestudio for arm 7.0.0/armtools/bin/../lib/gcc/arm-atollic-eabi/5.3.1/../../../../arm-atollic-eabi/lib/armv7-m\libc_nano.a(lib_a-memcpy-stub.o)
 .debug_frame   0x00005378       0x20 c:/program files (x86)/atollic/truestudio for arm 7.0.0/armtools/bin/../lib/gcc/arm-atollic-eabi/5.3.1/../../../../arm-atollic-eabi/lib/armv7-m\libc_nano.a(lib_a-memset.o)
 .debug_frame   0x00005398       0x38 c:/program files (x86)/atollic/truestudio for arm 7.0.0/armtools/bin/../lib/gcc/arm-atollic-eabi/5.3.1/../../../../arm-atollic-eabi/lib/armv7-m\libc_nano.a(lib_a-nano-freer.o)
 .debug_frame   0x000053d0       0x2c c:/program files (x86)/atollic/truestudio for arm 7.0.0/armtools/bin/../lib/gcc/arm-atollic-eabi/5.3.1/../../../../arm-atollic-eabi/lib/armv7-m\libc_nano.a(lib_a-nano-mallocr.o)
 .debug_frame   0x000053fc       0x74 c:/program files (x86)/atollic/truestudio for arm 7.0.0/armtools/bin/../lib/gcc/arm-atollic-eabi/5.3.1/../../../../arm-atollic-eabi/lib/armv7-m\libc_nano.a(lib_a-printf.o)
 .debug_frame   0x00005470       0x2c c:/program files (x86)/atollic/truestudio for arm 7.0.0/armtools/bin/../lib/gcc/arm-atollic-eabi/5.3.1/../../../../arm-atollic-eabi/lib/armv7-m\libc_nano.a(lib_a-sbrkr.o)
 .debug_frame   0x0000549c      0x11c c:/program files (x86)/atollic/truestudio for arm 7.0.0/armtools/bin/../lib/gcc/arm-atollic-eabi/5.3.1/../../../../arm-atollic-eabi/lib/armv7-m\libc_nano.a(lib_a-findfp.o)
 .debug_frame   0x000055b8       0x54 c:/program files (x86)/atollic/truestudio for arm 7.0.0/armtools/bin/../lib/gcc/arm-atollic-eabi/5.3.1/../../../../arm-atollic-eabi/lib/armv7-m\libc_nano.a(lib_a-fwalk.o)
 .debug_frame   0x0000560c       0x30 c:/program files (x86)/atollic/truestudio for arm 7.0.0/armtools/bin/../lib/gcc/arm-atollic-eabi/5.3.1/../../../../arm-atollic-eabi/lib/armv7-m\libc_nano.a(lib_a-mlock.o)
 .debug_frame   0x0000563c       0xac c:/program files (x86)/atollic/truestudio for arm 7.0.0/armtools/bin/../lib/gcc/arm-atollic-eabi/5.3.1/../../../../arm-atollic-eabi/lib/armv7-m\libc_nano.a(lib_a-nano-vfprintf.o)
 .debug_frame   0x000056e8       0x60 c:/program files (x86)/atollic/truestudio for arm 7.0.0/armtools/bin/../lib/gcc/arm-atollic-eabi/5.3.1/../../../../arm-atollic-eabi/lib/armv7-m\libc_nano.a(lib_a-nano-vfprintf_i.o)
 .debug_frame   0x00005748       0x5c c:/program files (x86)/atollic/truestudio for arm 7.0.0/armtools/bin/../lib/gcc/arm-atollic-eabi/5.3.1/../../../../arm-atollic-eabi/lib/armv7-m\libc_nano.a(lib_a-reent.o)
 .debug_frame   0x000057a4       0x88 c:/program files (x86)/atollic/truestudio for arm 7.0.0/armtools/bin/../lib/gcc/arm-atollic-eabi/5.3.1/../../../../arm-atollic-eabi/lib/armv7-m\libc_nano.a(lib_a-stdio.o)
 .debug_frame   0x0000582c       0x40 c:/program files (x86)/atollic/truestudio for arm 7.0.0/armtools/bin/../lib/gcc/arm-atollic-eabi/5.3.1/../../../../arm-atollic-eabi/lib/armv7-m\libc_nano.a(lib_a-wbuf.o)
 .debug_frame   0x0000586c       0x2c c:/program files (x86)/atollic/truestudio for arm 7.0.0/armtools/bin/../lib/gcc/arm-atollic-eabi/5.3.1/../../../../arm-atollic-eabi/lib/armv7-m\libc_nano.a(lib_a-writer.o)
 .debug_frame   0x00005898       0x2c c:/program files (x86)/atollic/truestudio for arm 7.0.0/armtools/bin/../lib/gcc/arm-atollic-eabi/5.3.1/../../../../arm-atollic-eabi/lib/armv7-m\libc_nano.a(lib_a-wsetup.o)
 .debug_frame   0x000058c4       0x2c c:/program files (x86)/atollic/truestudio for arm 7.0.0/armtools/bin/../lib/gcc/arm-atollic-eabi/5.3.1/../../../../arm-atollic-eabi/lib/armv7-m\libc_nano.a(lib_a-closer.o)
 .debug_frame   0x000058f0       0x68 c:/program files (x86)/atollic/truestudio for arm 7.0.0/armtools/bin/../lib/gcc/arm-atollic-eabi/5.3.1/../../../../arm-atollic-eabi/lib/armv7-m\libc_nano.a(lib_a-fflush.o)
 .debug_frame   0x00005958       0x2c c:/program files (x86)/atollic/truestudio for arm 7.0.0/armtools/bin/../lib/gcc/arm-atollic-eabi/5.3.1/../../../../arm-atollic-eabi/lib/armv7-m\libc_nano.a(lib_a-lseekr.o)
 .debug_frame   0x00005984       0x54 c:/program files (x86)/atollic/truestudio for arm 7.0.0/armtools/bin/../lib/gcc/arm-atollic-eabi/5.3.1/../../../../arm-atollic-eabi/lib/armv7-m\libc_nano.a(lib_a-makebuf.o)
 .debug_frame   0x000059d8       0x28 c:/program files (x86)/atollic/truestudio for arm 7.0.0/armtools/bin/../lib/gcc/arm-atollic-eabi/5.3.1/../../../../arm-atollic-eabi/lib/armv7-m\libc_nano.a(lib_a-memchr-stub.o)
 .debug_frame   0x00005a00       0x2c c:/program files (x86)/atollic/truestudio for arm 7.0.0/armtools/bin/../lib/gcc/arm-atollic-eabi/5.3.1/../../../../arm-atollic-eabi/lib/armv7-m\libc_nano.a(lib_a-readr.o)
 .debug_frame   0x00005a2c       0x2c c:/program files (x86)/atollic/truestudio for arm 7.0.0/armtools/bin/../lib/gcc/arm-atollic-eabi/5.3.1/../../../../arm-atollic-eabi/lib/armv7-m\libc_nano.a(lib_a-fstatr.o)
 .debug_frame   0x00005a58       0x2c c:/program files (x86)/atollic/truestudio for arm 7.0.0/armtools/bin/../lib/gcc/arm-atollic-eabi/5.3.1/../../../../arm-atollic-eabi/lib/armv7-m\libc_nano.a(lib_a-isattyr.o)
 .debug_frame   0x00005a84       0x20 c:/program files (x86)/atollic/truestudio for arm 7.0.0/armtools/bin/../lib/gcc/arm-atollic-eabi/5.3.1/../../../../arm-atollic-eabi/lib/armv7-m\libnosys.a(close.o)
 .debug_frame   0x00005aa4       0x20 c:/program files (x86)/atollic/truestudio for arm 7.0.0/armtools/bin/../lib/gcc/arm-atollic-eabi/5.3.1/../../../../arm-atollic-eabi/lib/armv7-m\libnosys.a(fstat.o)
 .debug_frame   0x00005ac4       0x20 c:/program files (x86)/atollic/truestudio for arm 7.0.0/armtools/bin/../lib/gcc/arm-atollic-eabi/5.3.1/../../../../arm-atollic-eabi/lib/armv7-m\libnosys.a(isatty.o)
 .debug_frame   0x00005ae4       0x20 c:/program files (x86)/atollic/truestudio for arm 7.0.0/armtools/bin/../lib/gcc/arm-atollic-eabi/5.3.1/../../../../arm-atollic-eabi/lib/armv7-m\libnosys.a(lseek.o)
 .debug_frame   0x00005b04       0x20 c:/program files (x86)/atollic/truestudio for arm 7.0.0/armtools/bin/../lib/gcc/arm-atollic-eabi/5.3.1/../../../../arm-atollic-eabi/lib/armv7-m\libnosys.a(read.o)
 .debug_frame   0x00005b24       0x20 c:/program files (x86)/atollic/truestudio for arm 7.0.0/armtools/bin/../lib/gcc/arm-atollic-eabi/5.3.1/../../../../arm-atollic-eabi/lib/armv7-m\libnosys.a(sbrk.o)
 .debug_frame   0x00005b44       0x20 c:/program files (x86)/atollic/truestudio for arm 7.0.0/armtools/bin/../lib/gcc/arm-atollic-eabi/5.3.1/../../../../arm-atollic-eabi/lib/armv7-m\libnosys.a(write.o)

.stab           0x00000000       0x9c
 .stab          0x00000000       0x24 c:/program files (x86)/atollic/truestudio for arm 7.0.0/armtools/bin/../lib/gcc/arm-atollic-eabi/5.3.1/../../../../arm-atollic-eabi/lib/armv7-m\libnosys.a(close.o)
 .stab          0x00000024       0x18 c:/program files (x86)/atollic/truestudio for arm 7.0.0/armtools/bin/../lib/gcc/arm-atollic-eabi/5.3.1/../../../../arm-atollic-eabi/lib/armv7-m\libnosys.a(fstat.o)
                                 0x24 (size before relaxing)
 .stab          0x0000003c       0x18 c:/program files (x86)/atollic/truestudio for arm 7.0.0/armtools/bin/../lib/gcc/arm-atollic-eabi/5.3.1/../../../../arm-atollic-eabi/lib/armv7-m\libnosys.a(isatty.o)
                                 0x24 (size before relaxing)
 .stab          0x00000054       0x18 c:/program files (x86)/atollic/truestudio for arm 7.0.0/armtools/bin/../lib/gcc/arm-atollic-eabi/5.3.1/../../../../arm-atollic-eabi/lib/armv7-m\libnosys.a(lseek.o)
                                 0x24 (size before relaxing)
 .stab          0x0000006c       0x18 c:/program files (x86)/atollic/truestudio for arm 7.0.0/armtools/bin/../lib/gcc/arm-atollic-eabi/5.3.1/../../../../arm-atollic-eabi/lib/armv7-m\libnosys.a(read.o)
                                 0x24 (size before relaxing)
 .stab          0x00000084       0x18 c:/program files (x86)/atollic/truestudio for arm 7.0.0/armtools/bin/../lib/gcc/arm-atollic-eabi/5.3.1/../../../../arm-atollic-eabi/lib/armv7-m\libnosys.a(write.o)
                                 0x24 (size before relaxing)

.stabstr        0x00000000      0x14d
 .stabstr       0x00000000      0x14d c:/program files (x86)/atollic/truestudio for arm 7.0.0/armtools/bin/../lib/gcc/arm-atollic-eabi/5.3.1/../../../../arm-atollic-eabi/lib/armv7-m\libnosys.a(close.o)

Cross Reference Table

Symbol                                            File
AC_DataBuf                                        BSP\PZEM004T\src\PZEM004T.o
AC_DataReceive_Cfg                                BSP\PZEM004T\src\PZEM004T.o
ADC1_2_IRQHandler                                 src\startup_stm32f10x_md.o
ADCT_AC_ConvertCurrent                            BSP\PZEM004T\src\PZEM004T.o
                                                  Apps\src\ADCT_BGS_Modbus.o
ADCT_AC_Convert_Energy                            BSP\PZEM004T\src\PZEM004T.o
                                                  Apps\src\ADCT_BGS_Modbus.o
ADCT_AC_Convert_Power                             BSP\PZEM004T\src\PZEM004T.o
                                                  Apps\src\ADCT_BGS_Modbus.o
ADCT_AC_GetData                                   BSP\PZEM004T\src\PZEM004T.o
                                                  Apps\src\ADCT_BGS_State.o
ADCT_AC_Init                                      BSP\PZEM004T\src\PZEM004T.o
                                                  src\main.o
ADCT_AT24C64_ReadOneByte                          BSP\AT24C64\src\ADCT_AT24C64.o
                                                  src\main.o
                                                  Apps\src\ADCT_BGS_State.o
ADCT_AT24C64_ReadTwoBytes                         BSP\AT24C64\src\ADCT_AT24C64.o
ADCT_AT24C64_WriteOneBytes                        BSP\AT24C64\src\ADCT_AT24C64.o
                                                  src\main.o
                                                  Apps\src\ADCT_BGS_Modbus.o
ADCT_AT24C64_WriteTwoBytes                        BSP\AT24C64\src\ADCT_AT24C64.o
                                                  Apps\src\ADCT_BGS_Modbus.o
ADCT_BGS_ASW_100ms_Init                           ASW_Task\src\ADCT_BGS_BSW_Task.o
                                                  src\main.o
ADCT_BGS_ASW_100ms_TaskHandler                    ASW_Task\src\ADCT_BGS_BSW_Task.o
ADCT_BGS_ASW_10ms_Init                            ASW_Task\src\ADCT_BGS_BSW_Task.o
                                                  src\main.o
ADCT_BGS_ASW_10ms_TaskHandler                     ASW_Task\src\ADCT_BGS_BSW_Task.o
ADCT_BGS_ASW_1ms_Init                             ASW_Task\src\ADCT_BGS_BSW_Task.o
                                                  src\main.o
ADCT_BGS_ASW_1ms_TaskHandler                      ASW_Task\src\ADCT_BGS_BSW_Task.o
ADCT_BGS_ASW_1s_Init                              ASW_Task\src\ADCT_BGS_BSW_Task.o
                                                  src\main.o
ADCT_BGS_ASW_1s_TaskHandler                       ASW_Task\src\ADCT_BGS_BSW_Task.o
ADCT_BGS_AlarmBuzzer                              Apps\src\ADCT_BGS_State.o
ADCT_BGS_Button_Init                              BSP\BUTTON\src\ADCT_BGS_BUTTON.o
                                                  src\main.o
ADCT_BGS_CheckBuzzerTimerRun                      Apps\src\ADCT_BGS_State.o
ADCT_BGS_CheckDelayOfftime                        Apps\src\ADCT_BGS_State.o
ADCT_BGS_CheckMinSwitchAIR1_2                     Apps\src\ADCT_BGS_State.o
ADCT_BGS_CheckMinSwitchAIR3_4                     Apps\src\ADCT_BGS_State.o
ADCT_BGS_CheckTminFan                             Apps\src\ADCT_BGS_State.o
ADCT_BGS_DHT22GetHumidity                         BSP\AM2302\src\ADCT_DHT22.o
ADCT_BGS_DHT22GetTemp                             BSP\AM2302\src\ADCT_DHT22.o
ADCT_BGS_DHT22Init                                BSP\AM2302\src\ADCT_DHT22.o
                                                  Apps\src\ADCT_BGS_System.o
ADCT_BGS_DHT22Measuring                           BSP\AM2302\src\ADCT_DHT22.o
ADCT_BGS_DHT22Start                               BSP\AM2302\src\ADCT_DHT22.o
                                                  Apps\src\ADCT_BGS_State.o
ADCT_BGS_DHT22_CheckCRC                           BSP\AM2302\src\ADCT_DHT22.o
ADCT_BGS_DHT22_GetData                            BSP\AM2302\src\ADCT_DHT22.o
ADCT_BGS_DHT22_PWR_Init                           BSP\AM2302\src\ADCT_DHT22.o
                                                  src\main.o
ADCT_BGS_Date_Time_Setting                        src\main.o
ADCT_BGS_Factory_Reset                            src\main.o
ADCT_BGS_GetCurrentRTCData                        Apps\src\ADCT_BGS_State.o
ADCT_BGS_Hummid                                   BSP\AM2302\src\ADCT_DHT22.o
ADCT_BGS_Initialize_system                        src\main.o
ADCT_BGS_MODBUS_GetSetting                        Apps\src\ADCT_BGS_Modbus.o
                                                  src\main.o
ADCT_BGS_MODBUS_Get_BE_DKG_Data                   Apps\src\ADCT_BGS_Modbus.o
                                                  src\main.o
ADCT_BGS_MODBUS_RS485_Init                        Apps\src\ADCT_BGS_Modbus.o
                                                  src\main.o
                                                  Apps\src\ADCT_BGS_System.o
ADCT_BGS_MODBUS_RS485_UpdateData                  Apps\src\ADCT_BGS_Modbus.o
                                                  src\main.o
ADCT_BGS_REBOOT_BOARD                             Apps\src\ADCT_BGS_Modbus.o
                                                  src\main.o
ADCT_BGS_RTC_Init                                 BSP\RTC\src\ADCT_RTC.o
                                                  src\main.o
ADCT_BGS_Run_RTC                                  BSP\RTC\src\ADCT_RTC.o
                                                  Apps\src\ADCT_BGS_State.o
ADCT_BGS_Sensor_Input_Init                        BSP\SENSOR\src\ADCT_Sensor.o
                                                  src\main.o
ADCT_BGS_SetTime                                  BSP\RTC\src\ADCT_RTC.o
ADCT_BGS_Setting_Date_Time                        BSP\RTC\src\ADCT_RTC.o
                                                  src\main.o
ADCT_BGS_StateManger                              Apps\src\ADCT_BGS_State.o
                                                  src\main.o
ADCT_BGS_SwitchAIR_TimeCal                        Apps\src\ADCT_BGS_State.o
ADCT_BGS_Systick_Init                             BSP\delay\src\ADCT_BGS_FPT_Delay.o
                                                  src\main.o
ADCT_BGS_Temp                                     BSP\AM2302\src\ADCT_DHT22.o
ADCT_DHT22_FPT_GetValue                           BSP\AM2302\src\ADCT_DHT22.o
                                                  ASW_Task\src\ADCT_BGS_BSW_Task.o
ADCT_IO_FPT_GetValue                              Apps\src\ADCT_BGS_State.o
ADCT_PHVal                                        src\main.o
                                                  Apps\src\ADCT_BGS_Modbus.o
ADCT_PZEM0004T_sendData                           BSP\PZEM004T\src\PZEM004T.o
ADCT_PZEM004T_GetChar                             BSP\PZEM004T\src\PZEM004T.o
ADCT_PZEM004T_Init                                BSP\PZEM004T\src\PZEM004T.o
ADCT_PZEM004T_PutChar                             BSP\PZEM004T\src\PZEM004T.o
ADCT_PZEM004T_PutFrame                            BSP\PZEM004T\src\PZEM004T.o
ADCT_PZEM004T_PutString                           BSP\PZEM004T\src\PZEM004T.o
ADCT_PZEM004T_crc                                 BSP\PZEM004T\src\PZEM004T.o
ADCT_PZEM004T_getCurrent                          BSP\PZEM004T\src\PZEM004T.o
ADCT_PZEM004T_getEnergy                           BSP\PZEM004T\src\PZEM004T.o
ADCT_PZEM004T_getPower                            BSP\PZEM004T\src\PZEM004T.o
ADCT_PZEM004T_getVoltage                          BSP\PZEM004T\src\PZEM004T.o
ADCT_PZEM004T_receiveData                         BSP\PZEM004T\src\PZEM004T.o
ADCT_PZEM004T_setAddress                          BSP\PZEM004T\src\PZEM004T.o
ADCT_PZEM004T_setPowerAlarm                       BSP\PZEM004T\src\PZEM004T.o
ADCT_PhSensorInit                                 BSP\PhSensor\src\ADCT_PhSensor.o
                                                  src\main.o
ADCT_Ph_GetSample                                 BSP\PhSensor\src\ADCT_PhSensor.o
                                                  ASW_Task\src\ADCT_BGS_BSW_Task.o
ADCT_Ph_GetStatus                                 BSP\PhSensor\src\ADCT_PhSensor.o
                                                  src\main.o
ADCT_Ph_getValue                                  BSP\PhSensor\src\ADCT_PhSensor.o
                                                  src\main.o
ADCT_Relay_Init                                   BSP\RELAY\src\ADCT_Relay.o
                                                  src\main.o
ADCT_SYSTEM_FPT_CheckState_DHT                    Apps\src\ADCT_BGS_System.o
                                                  Apps\src\ADCT_BGS_State.o
ADCT_SYSTEM_FPT_CheckState_IO                     Apps\src\ADCT_BGS_System.o
                                                  Apps\src\ADCT_BGS_State.o
ADCT_SYSTEM_FPT_CheckState_MODBUS                 Apps\src\ADCT_BGS_System.o
                                                  Apps\src\ADCT_BGS_State.o
ADCT_SYSTEM_FPT_Init                              Apps\src\ADCT_BGS_System.o
ADCT_SYSTEM_FPT_TempTimer_Task                    Apps\src\ADCT_BGS_System.o
ADCT_SendDebugData                                Apps\src\ADCT_BGS_Modbus.o
ADCT_SystemFPT_CheckAlarm                         Apps\src\ADCT_BGS_System.o
ADCT_SystemFPT_CheckAlarm_Siren                   Apps\src\ADCT_BGS_System.o
ADCT_SystemFPT_RunOutput                          Apps\src\ADCT_BGS_System.o
                                                  src\main.o
ADC_AnalogWatchdogCmd                             Libraries\STM32F10x_StdPeriph_Driver\src\stm32f10x_adc.o
ADC_AnalogWatchdogSingleChannelConfig             Libraries\STM32F10x_StdPeriph_Driver\src\stm32f10x_adc.o
ADC_AnalogWatchdogThresholdsConfig                Libraries\STM32F10x_StdPeriph_Driver\src\stm32f10x_adc.o
ADC_AutoInjectedConvCmd                           Libraries\STM32F10x_StdPeriph_Driver\src\stm32f10x_adc.o
ADC_ClearFlag                                     Libraries\STM32F10x_StdPeriph_Driver\src\stm32f10x_adc.o
ADC_ClearITPendingBit                             Libraries\STM32F10x_StdPeriph_Driver\src\stm32f10x_adc.o
ADC_Cmd                                           Libraries\STM32F10x_StdPeriph_Driver\src\stm32f10x_adc.o
                                                  BSP\PhSensor\src\ADCT_PhSensor.o
ADC_DMACmd                                        Libraries\STM32F10x_StdPeriph_Driver\src\stm32f10x_adc.o
ADC_DeInit                                        Libraries\STM32F10x_StdPeriph_Driver\src\stm32f10x_adc.o
ADC_DiscModeChannelCountConfig                    Libraries\STM32F10x_StdPeriph_Driver\src\stm32f10x_adc.o
ADC_DiscModeCmd                                   Libraries\STM32F10x_StdPeriph_Driver\src\stm32f10x_adc.o
ADC_ExternalTrigConvCmd                           Libraries\STM32F10x_StdPeriph_Driver\src\stm32f10x_adc.o
ADC_ExternalTrigInjectedConvCmd                   Libraries\STM32F10x_StdPeriph_Driver\src\stm32f10x_adc.o
ADC_ExternalTrigInjectedConvConfig                Libraries\STM32F10x_StdPeriph_Driver\src\stm32f10x_adc.o
ADC_GetCalibrationStatus                          Libraries\STM32F10x_StdPeriph_Driver\src\stm32f10x_adc.o
                                                  BSP\PhSensor\src\ADCT_PhSensor.o
ADC_GetConversionValue                            Libraries\STM32F10x_StdPeriph_Driver\src\stm32f10x_adc.o
                                                  BSP\PhSensor\src\ADCT_PhSensor.o
ADC_GetDualModeConversionValue                    Libraries\STM32F10x_StdPeriph_Driver\src\stm32f10x_adc.o
ADC_GetFlagStatus                                 Libraries\STM32F10x_StdPeriph_Driver\src\stm32f10x_adc.o
ADC_GetITStatus                                   Libraries\STM32F10x_StdPeriph_Driver\src\stm32f10x_adc.o
ADC_GetInjectedConversionValue                    Libraries\STM32F10x_StdPeriph_Driver\src\stm32f10x_adc.o
ADC_GetResetCalibrationStatus                     Libraries\STM32F10x_StdPeriph_Driver\src\stm32f10x_adc.o
                                                  BSP\PhSensor\src\ADCT_PhSensor.o
ADC_GetSoftwareStartConvStatus                    Libraries\STM32F10x_StdPeriph_Driver\src\stm32f10x_adc.o
ADC_GetSoftwareStartInjectedConvCmdStatus         Libraries\STM32F10x_StdPeriph_Driver\src\stm32f10x_adc.o
ADC_ITConfig                                      Libraries\STM32F10x_StdPeriph_Driver\src\stm32f10x_adc.o
ADC_Init                                          Libraries\STM32F10x_StdPeriph_Driver\src\stm32f10x_adc.o
                                                  BSP\PhSensor\src\ADCT_PhSensor.o
ADC_InjectedChannelConfig                         Libraries\STM32F10x_StdPeriph_Driver\src\stm32f10x_adc.o
ADC_InjectedDiscModeCmd                           Libraries\STM32F10x_StdPeriph_Driver\src\stm32f10x_adc.o
ADC_InjectedSequencerLengthConfig                 Libraries\STM32F10x_StdPeriph_Driver\src\stm32f10x_adc.o
ADC_RegularChannelConfig                          Libraries\STM32F10x_StdPeriph_Driver\src\stm32f10x_adc.o
                                                  BSP\PhSensor\src\ADCT_PhSensor.o
ADC_ResetCalibration                              Libraries\STM32F10x_StdPeriph_Driver\src\stm32f10x_adc.o
                                                  BSP\PhSensor\src\ADCT_PhSensor.o
ADC_SetInjectedOffset                             Libraries\STM32F10x_StdPeriph_Driver\src\stm32f10x_adc.o
ADC_SoftwareStartConvCmd                          Libraries\STM32F10x_StdPeriph_Driver\src\stm32f10x_adc.o
                                                  BSP\PhSensor\src\ADCT_PhSensor.o
ADC_SoftwareStartInjectedConvCmd                  Libraries\STM32F10x_StdPeriph_Driver\src\stm32f10x_adc.o
ADC_StartCalibration                              Libraries\STM32F10x_StdPeriph_Driver\src\stm32f10x_adc.o
                                                  BSP\PhSensor\src\ADCT_PhSensor.o
ADC_StructInit                                    Libraries\STM32F10x_StdPeriph_Driver\src\stm32f10x_adc.o
ADC_TempSensorVrefintCmd                          Libraries\STM32F10x_StdPeriph_Driver\src\stm32f10x_adc.o
                                                  BSP\PhSensor\src\ADCT_PhSensor.o
AHBPrescTable                                     src\system_stm32f10x.o
ActState                                          Apps\src\ADCT_BGS_Bare_state.o
BKP_ClearFlag                                     Libraries\STM32F10x_StdPeriph_Driver\src\stm32f10x_bkp.o
BKP_ClearITPendingBit                             Libraries\STM32F10x_StdPeriph_Driver\src\stm32f10x_bkp.o
BKP_DeInit                                        Libraries\STM32F10x_StdPeriph_Driver\src\stm32f10x_bkp.o
                                                  BSP\RTC\src\ADCT_RTC.o
BKP_GetFlagStatus                                 Libraries\STM32F10x_StdPeriph_Driver\src\stm32f10x_bkp.o
BKP_GetITStatus                                   Libraries\STM32F10x_StdPeriph_Driver\src\stm32f10x_bkp.o
BKP_ITConfig                                      Libraries\STM32F10x_StdPeriph_Driver\src\stm32f10x_bkp.o
BKP_RTCOutputConfig                               Libraries\STM32F10x_StdPeriph_Driver\src\stm32f10x_bkp.o
                                                  BSP\RTC\src\ADCT_RTC.o
BKP_ReadBackupRegister                            Libraries\STM32F10x_StdPeriph_Driver\src\stm32f10x_bkp.o
                                                  BSP\RTC\src\ADCT_RTC.o
BKP_SetRTCCalibrationValue                        Libraries\STM32F10x_StdPeriph_Driver\src\stm32f10x_bkp.o
BKP_TamperPinCmd                                  Libraries\STM32F10x_StdPeriph_Driver\src\stm32f10x_bkp.o
BKP_TamperPinLevelConfig                          Libraries\STM32F10x_StdPeriph_Driver\src\stm32f10x_bkp.o
BKP_WriteBackupRegister                           Libraries\STM32F10x_StdPeriph_Driver\src\stm32f10x_bkp.o
                                                  BSP\RTC\src\ADCT_RTC.o
BUTTON_CANCEL_Callback                            Apps\src\ADCT_BGS_Bare_state.o
                                                  BSP\BUTTON\src\ADCT_BGS_BUTTON.o
BUTTON_DOWN_Callback                              Apps\src\ADCT_BGS_Bare_state.o
                                                  BSP\BUTTON\src\ADCT_BGS_BUTTON.o
BUTTON_ENTER_Callback                             Apps\src\ADCT_BGS_Bare_state.o
                                                  BSP\BUTTON\src\ADCT_BGS_BUTTON.o
BUTTON_UP_Callback                                Apps\src\ADCT_BGS_Bare_state.o
                                                  BSP\BUTTON\src\ADCT_BGS_BUTTON.o
BusFault_Handler                                  src\stm32f1xx_it.o
                                                  src\startup_stm32f10x_md.o
CAN1_RX1_IRQHandler                               src\startup_stm32f10x_md.o
CAN1_SCE_IRQHandler                               src\startup_stm32f10x_md.o
CAN_CancelTransmit                                Libraries\STM32F10x_StdPeriph_Driver\src\stm32f10x_can.o
CAN_ClearFlag                                     Libraries\STM32F10x_StdPeriph_Driver\src\stm32f10x_can.o
CAN_ClearITPendingBit                             Libraries\STM32F10x_StdPeriph_Driver\src\stm32f10x_can.o
CAN_DBGFreeze                                     Libraries\STM32F10x_StdPeriph_Driver\src\stm32f10x_can.o
CAN_DeInit                                        Libraries\STM32F10x_StdPeriph_Driver\src\stm32f10x_can.o
CAN_FIFORelease                                   Libraries\STM32F10x_StdPeriph_Driver\src\stm32f10x_can.o
CAN_FilterInit                                    Libraries\STM32F10x_StdPeriph_Driver\src\stm32f10x_can.o
CAN_GetFlagStatus                                 Libraries\STM32F10x_StdPeriph_Driver\src\stm32f10x_can.o
CAN_GetITStatus                                   Libraries\STM32F10x_StdPeriph_Driver\src\stm32f10x_can.o
CAN_GetLSBTransmitErrorCounter                    Libraries\STM32F10x_StdPeriph_Driver\src\stm32f10x_can.o
CAN_GetLastErrorCode                              Libraries\STM32F10x_StdPeriph_Driver\src\stm32f10x_can.o
CAN_GetReceiveErrorCounter                        Libraries\STM32F10x_StdPeriph_Driver\src\stm32f10x_can.o
CAN_ITConfig                                      Libraries\STM32F10x_StdPeriph_Driver\src\stm32f10x_can.o
CAN_Init                                          Libraries\STM32F10x_StdPeriph_Driver\src\stm32f10x_can.o
CAN_MessagePending                                Libraries\STM32F10x_StdPeriph_Driver\src\stm32f10x_can.o
CAN_OperatingModeRequest                          Libraries\STM32F10x_StdPeriph_Driver\src\stm32f10x_can.o
CAN_Receive                                       Libraries\STM32F10x_StdPeriph_Driver\src\stm32f10x_can.o
CAN_SlaveStartBank                                Libraries\STM32F10x_StdPeriph_Driver\src\stm32f10x_can.o
CAN_Sleep                                         Libraries\STM32F10x_StdPeriph_Driver\src\stm32f10x_can.o
CAN_StructInit                                    Libraries\STM32F10x_StdPeriph_Driver\src\stm32f10x_can.o
CAN_TTComModeCmd                                  Libraries\STM32F10x_StdPeriph_Driver\src\stm32f10x_can.o
CAN_Transmit                                      Libraries\STM32F10x_StdPeriph_Driver\src\stm32f10x_can.o
CAN_TransmitStatus                                Libraries\STM32F10x_StdPeriph_Driver\src\stm32f10x_can.o
CAN_WakeUp                                        Libraries\STM32F10x_StdPeriph_Driver\src\stm32f10x_can.o
CEC_ClearFlag                                     Libraries\STM32F10x_StdPeriph_Driver\src\stm32f10x_cec.o
CEC_ClearITPendingBit                             Libraries\STM32F10x_StdPeriph_Driver\src\stm32f10x_cec.o
CEC_Cmd                                           Libraries\STM32F10x_StdPeriph_Driver\src\stm32f10x_cec.o
CEC_DeInit                                        Libraries\STM32F10x_StdPeriph_Driver\src\stm32f10x_cec.o
CEC_EndOfMessageCmd                               Libraries\STM32F10x_StdPeriph_Driver\src\stm32f10x_cec.o
CEC_GetFlagStatus                                 Libraries\STM32F10x_StdPeriph_Driver\src\stm32f10x_cec.o
CEC_GetITStatus                                   Libraries\STM32F10x_StdPeriph_Driver\src\stm32f10x_cec.o
CEC_ITConfig                                      Libraries\STM32F10x_StdPeriph_Driver\src\stm32f10x_cec.o
CEC_Init                                          Libraries\STM32F10x_StdPeriph_Driver\src\stm32f10x_cec.o
CEC_OwnAddressConfig                              Libraries\STM32F10x_StdPeriph_Driver\src\stm32f10x_cec.o
CEC_ReceiveDataByte                               Libraries\STM32F10x_StdPeriph_Driver\src\stm32f10x_cec.o
CEC_SendDataByte                                  Libraries\STM32F10x_StdPeriph_Driver\src\stm32f10x_cec.o
CEC_SetPrescaler                                  Libraries\STM32F10x_StdPeriph_Driver\src\stm32f10x_cec.o
CEC_StartOfMessage                                Libraries\STM32F10x_StdPeriph_Driver\src\stm32f10x_cec.o
CRC_CalcBlockCRC                                  Libraries\STM32F10x_StdPeriph_Driver\src\stm32f10x_crc.o
CRC_CalcCRC                                       Libraries\STM32F10x_StdPeriph_Driver\src\stm32f10x_crc.o
CRC_GetCRC                                        Libraries\STM32F10x_StdPeriph_Driver\src\stm32f10x_crc.o
CRC_GetIDRegister                                 Libraries\STM32F10x_StdPeriph_Driver\src\stm32f10x_crc.o
CRC_ResetDR                                       Libraries\STM32F10x_StdPeriph_Driver\src\stm32f10x_crc.o
CRC_SetIDRegister                                 Libraries\STM32F10x_StdPeriph_Driver\src\stm32f10x_crc.o
CancelButton                                      BSP\BUTTON\src\ADCT_BGS_BUTTON.o
CheckForDaysElapsed                               BSP\RTC\src\ADCT_RTC.o
CheckLeap                                         BSP\RTC\src\ADCT_RTC.o
ClockSource                                       BSP\RTC\src\ADCT_RTC.o
DAC_Cmd                                           Libraries\STM32F10x_StdPeriph_Driver\src\stm32f10x_dac.o
DAC_DMACmd                                        Libraries\STM32F10x_StdPeriph_Driver\src\stm32f10x_dac.o
DAC_DeInit                                        Libraries\STM32F10x_StdPeriph_Driver\src\stm32f10x_dac.o
DAC_DualSoftwareTriggerCmd                        Libraries\STM32F10x_StdPeriph_Driver\src\stm32f10x_dac.o
DAC_GetDataOutputValue                            Libraries\STM32F10x_StdPeriph_Driver\src\stm32f10x_dac.o
DAC_Init                                          Libraries\STM32F10x_StdPeriph_Driver\src\stm32f10x_dac.o
DAC_SetChannel1Data                               Libraries\STM32F10x_StdPeriph_Driver\src\stm32f10x_dac.o
DAC_SetChannel2Data                               Libraries\STM32F10x_StdPeriph_Driver\src\stm32f10x_dac.o
DAC_SetDualChannelData                            Libraries\STM32F10x_StdPeriph_Driver\src\stm32f10x_dac.o
DAC_SoftwareTriggerCmd                            Libraries\STM32F10x_StdPeriph_Driver\src\stm32f10x_dac.o
DAC_StructInit                                    Libraries\STM32F10x_StdPeriph_Driver\src\stm32f10x_dac.o
DAC_WaveGenerationCmd                             Libraries\STM32F10x_StdPeriph_Driver\src\stm32f10x_dac.o
DBGMCU_Config                                     Libraries\STM32F10x_StdPeriph_Driver\src\stm32f10x_dbgmcu.o
DBGMCU_GetDEVID                                   Libraries\STM32F10x_StdPeriph_Driver\src\stm32f10x_dbgmcu.o
DBGMCU_GetREVID                                   Libraries\STM32F10x_StdPeriph_Driver\src\stm32f10x_dbgmcu.o
DHT22_Module_Init_Hardware                        BSP\AM2302\src\ADCT_DHT22.o
                                                  src\main.o
DMA1_Channel1_IRQHandler                          src\startup_stm32f10x_md.o
DMA1_Channel2_IRQHandler                          src\startup_stm32f10x_md.o
DMA1_Channel3_IRQHandler                          src\startup_stm32f10x_md.o
DMA1_Channel4_IRQHandler                          src\startup_stm32f10x_md.o
DMA1_Channel5_IRQHandler                          src\startup_stm32f10x_md.o
DMA1_Channel6_IRQHandler                          BSP\AT24C64\src\ADCT_AT24C64.o
DMA1_Channel7_IRQHandler                          BSP\AT24C64\src\ADCT_AT24C64.o
DMA_ClearFlag                                     Libraries\STM32F10x_StdPeriph_Driver\src\stm32f10x_dma.o
                                                  BSP\AT24C64\src\ADCT_AT24C64.o
DMA_ClearITPendingBit                             Libraries\STM32F10x_StdPeriph_Driver\src\stm32f10x_dma.o
DMA_Cmd                                           Libraries\STM32F10x_StdPeriph_Driver\src\stm32f10x_dma.o
                                                  BSP\AT24C64\src\ADCT_AT24C64.o
DMA_DeInit                                        Libraries\STM32F10x_StdPeriph_Driver\src\stm32f10x_dma.o
                                                  BSP\AT24C64\src\ADCT_AT24C64.o
DMA_GetCurrDataCounter                            Libraries\STM32F10x_StdPeriph_Driver\src\stm32f10x_dma.o
DMA_GetFlagStatus                                 Libraries\STM32F10x_StdPeriph_Driver\src\stm32f10x_dma.o
                                                  BSP\AT24C64\src\ADCT_AT24C64.o
DMA_GetITStatus                                   Libraries\STM32F10x_StdPeriph_Driver\src\stm32f10x_dma.o
DMA_ITConfig                                      Libraries\STM32F10x_StdPeriph_Driver\src\stm32f10x_dma.o
                                                  BSP\AT24C64\src\ADCT_AT24C64.o
DMA_Init                                          Libraries\STM32F10x_StdPeriph_Driver\src\stm32f10x_dma.o
                                                  BSP\AT24C64\src\ADCT_AT24C64.o
DMA_SetCurrDataCounter                            Libraries\STM32F10x_StdPeriph_Driver\src\stm32f10x_dma.o
DMA_StructInit                                    Libraries\STM32F10x_StdPeriph_Driver\src\stm32f10x_dma.o
Data_avai                                         BSP\PhSensor\src\ADCT_PhSensor.o
                                                  ASW_Task\src\ADCT_BGS_BSW_Task.o
DateUpdate                                        BSP\RTC\src\ADCT_RTC.o
DebugMon_Handler                                  src\stm32f1xx_it.o
                                                  src\startup_stm32f10x_md.o
Default_Handler                                   src\startup_stm32f10x_md.o
DisplayTime                                       BSP\RTC\src\ADCT_RTC.o
DownButton                                        BSP\BUTTON\src\ADCT_BGS_BUTTON.o
EEPROMAddress                                     BSP\AT24C64\src\ADCT_AT24C64.o
EEPROMDMA_InitStructure                           BSP\AT24C64\src\ADCT_AT24C64.o
EEPROMDataNum                                     BSP\AT24C64\src\ADCT_AT24C64.o
EEPROMDataReadPointer                             BSP\AT24C64\src\ADCT_AT24C64.o
EEPROMDataWritePointer                            BSP\AT24C64\src\ADCT_AT24C64.o
EEPROMTimeout                                     BSP\AT24C64\src\ADCT_AT24C64.o
EEPROM_DeInit                                     BSP\AT24C64\src\ADCT_AT24C64.o
EEPROM_EnterCriticalSection_UserCallback          BSP\AT24C64\src\ADCT_AT24C64.o
EEPROM_ExitCriticalSection_UserCallback           BSP\AT24C64\src\ADCT_AT24C64.o
EEPROM_Init                                       BSP\AT24C64\src\ADCT_AT24C64.o
                                                  src\main.o
EEPROM_LowLevel_DMAConfig                         BSP\AT24C64\src\ADCT_AT24C64.o
EEPROM_LowLevel_DeInit                            BSP\AT24C64\src\ADCT_AT24C64.o
EEPROM_LowLevel_Init                              BSP\AT24C64\src\ADCT_AT24C64.o
EEPROM_ReadBuffer                                 BSP\AT24C64\src\ADCT_AT24C64.o
EEPROM_TIMEOUT_UserCallback                       BSP\AT24C64\src\ADCT_AT24C64.o
EEPROM_WaitEepromStandbyState                     BSP\AT24C64\src\ADCT_AT24C64.o
EEPROM_WriteBuffer                                BSP\AT24C64\src\ADCT_AT24C64.o
EEPROM_WritePage                                  BSP\AT24C64\src\ADCT_AT24C64.o
EXTI0_IRQHandler                                  BSP\AM2302\src\ADCT_DHT22_exti.o
EXTI15_10_IRQHandler                              BSP\AM2302\src\ADCT_DHT22_exti.o
EXTI1_IRQHandler                                  BSP\AM2302\src\ADCT_DHT22_exti.o
EXTI2_IRQHandler                                  BSP\AM2302\src\ADCT_DHT22_exti.o
EXTI3_IRQHandler                                  src\startup_stm32f10x_md.o
EXTI4_IRQHandler                                  src\startup_stm32f10x_md.o
EXTI9_5_IRQHandler                                BSP\AM2302\src\ADCT_DHT22_exti.o
EXTI_ClearFlag                                    Libraries\STM32F10x_StdPeriph_Driver\src\stm32f10x_exti.o
EXTI_ClearITPendingBit                            Libraries\STM32F10x_StdPeriph_Driver\src\stm32f10x_exti.o
                                                  BSP\AM2302\src\ADCT_DHT22_exti.o
EXTI_DeInit                                       Libraries\STM32F10x_StdPeriph_Driver\src\stm32f10x_exti.o
EXTI_GenerateSWInterrupt                          Libraries\STM32F10x_StdPeriph_Driver\src\stm32f10x_exti.o
EXTI_GetFlagStatus                                Libraries\STM32F10x_StdPeriph_Driver\src\stm32f10x_exti.o
EXTI_GetITStatus                                  Libraries\STM32F10x_StdPeriph_Driver\src\stm32f10x_exti.o
                                                  BSP\AM2302\src\ADCT_DHT22_exti.o
EXTI_Init                                         Libraries\STM32F10x_StdPeriph_Driver\src\stm32f10x_exti.o
                                                  BSP\AM2302\src\ADCT_DHT22_exti.o
EXTI_StructInit                                   Libraries\STM32F10x_StdPeriph_Driver\src\stm32f10x_exti.o
EnterButton                                       BSP\BUTTON\src\ADCT_BGS_BUTTON.o
FIFO_Add                                          BSP\PZEM004T\src\fifo.o
                                                  BSP\PZEM004T\src\PZEM004T.o
FIFO_IsEmpty                                      BSP\PZEM004T\src\fifo.o
                                                  BSP\PZEM004T\src\PZEM004T.o
FIFO_Pop                                          BSP\PZEM004T\src\fifo.o
                                                  BSP\PZEM004T\src\PZEM004T.o
FIFO_Push                                         BSP\PZEM004T\src\fifo.o
                                                  BSP\PZEM004T\src\PZEM004T.o
FLASH_ClearFlag                                   Libraries\STM32F10x_StdPeriph_Driver\src\stm32f10x_flash.o
FLASH_EnableWriteProtection                       Libraries\STM32F10x_StdPeriph_Driver\src\stm32f10x_flash.o
FLASH_EraseAllBank1Pages                          Libraries\STM32F10x_StdPeriph_Driver\src\stm32f10x_flash.o
FLASH_EraseAllPages                               Libraries\STM32F10x_StdPeriph_Driver\src\stm32f10x_flash.o
FLASH_EraseOptionBytes                            Libraries\STM32F10x_StdPeriph_Driver\src\stm32f10x_flash.o
FLASH_ErasePage                                   Libraries\STM32F10x_StdPeriph_Driver\src\stm32f10x_flash.o
FLASH_GetBank1Status                              Libraries\STM32F10x_StdPeriph_Driver\src\stm32f10x_flash.o
FLASH_GetFlagStatus                               Libraries\STM32F10x_StdPeriph_Driver\src\stm32f10x_flash.o
FLASH_GetPrefetchBufferStatus                     Libraries\STM32F10x_StdPeriph_Driver\src\stm32f10x_flash.o
FLASH_GetReadOutProtectionStatus                  Libraries\STM32F10x_StdPeriph_Driver\src\stm32f10x_flash.o
FLASH_GetStatus                                   Libraries\STM32F10x_StdPeriph_Driver\src\stm32f10x_flash.o
FLASH_GetUserOptionByte                           Libraries\STM32F10x_StdPeriph_Driver\src\stm32f10x_flash.o
FLASH_GetWriteProtectionOptionByte                Libraries\STM32F10x_StdPeriph_Driver\src\stm32f10x_flash.o
FLASH_HalfCycleAccessCmd                          Libraries\STM32F10x_StdPeriph_Driver\src\stm32f10x_flash.o
FLASH_IRQHandler                                  src\startup_stm32f10x_md.o
FLASH_ITConfig                                    Libraries\STM32F10x_StdPeriph_Driver\src\stm32f10x_flash.o
FLASH_Lock                                        Libraries\STM32F10x_StdPeriph_Driver\src\stm32f10x_flash.o
FLASH_LockBank1                                   Libraries\STM32F10x_StdPeriph_Driver\src\stm32f10x_flash.o
FLASH_PrefetchBufferCmd                           Libraries\STM32F10x_StdPeriph_Driver\src\stm32f10x_flash.o
                                                  BSP\RTC\src\ADCT_RTC.o
FLASH_ProgramHalfWord                             Libraries\STM32F10x_StdPeriph_Driver\src\stm32f10x_flash.o
FLASH_ProgramOptionByteData                       Libraries\STM32F10x_StdPeriph_Driver\src\stm32f10x_flash.o
FLASH_ProgramWord                                 Libraries\STM32F10x_StdPeriph_Driver\src\stm32f10x_flash.o
FLASH_ReadOutProtection                           Libraries\STM32F10x_StdPeriph_Driver\src\stm32f10x_flash.o
FLASH_SetLatency                                  Libraries\STM32F10x_StdPeriph_Driver\src\stm32f10x_flash.o
                                                  BSP\RTC\src\ADCT_RTC.o
FLASH_Unlock                                      Libraries\STM32F10x_StdPeriph_Driver\src\stm32f10x_flash.o
                                                  BSP\RTC\src\ADCT_RTC.o
FLASH_UnlockBank1                                 Libraries\STM32F10x_StdPeriph_Driver\src\stm32f10x_flash.o
FLASH_UserOptionByteConfig                        Libraries\STM32F10x_StdPeriph_Driver\src\stm32f10x_flash.o
FLASH_WaitForLastBank1Operation                   Libraries\STM32F10x_StdPeriph_Driver\src\stm32f10x_flash.o
FLASH_WaitForLastOperation                        Libraries\STM32F10x_StdPeriph_Driver\src\stm32f10x_flash.o
FSMC_ClearFlag                                    Libraries\STM32F10x_StdPeriph_Driver\src\stm32f10x_fsmc.o
FSMC_ClearITPendingBit                            Libraries\STM32F10x_StdPeriph_Driver\src\stm32f10x_fsmc.o
FSMC_GetECC                                       Libraries\STM32F10x_StdPeriph_Driver\src\stm32f10x_fsmc.o
FSMC_GetFlagStatus                                Libraries\STM32F10x_StdPeriph_Driver\src\stm32f10x_fsmc.o
FSMC_GetITStatus                                  Libraries\STM32F10x_StdPeriph_Driver\src\stm32f10x_fsmc.o
FSMC_ITConfig                                     Libraries\STM32F10x_StdPeriph_Driver\src\stm32f10x_fsmc.o
FSMC_NANDCmd                                      Libraries\STM32F10x_StdPeriph_Driver\src\stm32f10x_fsmc.o
FSMC_NANDDeInit                                   Libraries\STM32F10x_StdPeriph_Driver\src\stm32f10x_fsmc.o
FSMC_NANDECCCmd                                   Libraries\STM32F10x_StdPeriph_Driver\src\stm32f10x_fsmc.o
FSMC_NANDInit                                     Libraries\STM32F10x_StdPeriph_Driver\src\stm32f10x_fsmc.o
FSMC_NANDStructInit                               Libraries\STM32F10x_StdPeriph_Driver\src\stm32f10x_fsmc.o
FSMC_NORSRAMCmd                                   Libraries\STM32F10x_StdPeriph_Driver\src\stm32f10x_fsmc.o
FSMC_NORSRAMDeInit                                Libraries\STM32F10x_StdPeriph_Driver\src\stm32f10x_fsmc.o
FSMC_NORSRAMInit                                  Libraries\STM32F10x_StdPeriph_Driver\src\stm32f10x_fsmc.o
FSMC_NORSRAMStructInit                            Libraries\STM32F10x_StdPeriph_Driver\src\stm32f10x_fsmc.o
FSMC_PCCARDCmd                                    Libraries\STM32F10x_StdPeriph_Driver\src\stm32f10x_fsmc.o
FSMC_PCCARDDeInit                                 Libraries\STM32F10x_StdPeriph_Driver\src\stm32f10x_fsmc.o
FSMC_PCCARDInit                                   Libraries\STM32F10x_StdPeriph_Driver\src\stm32f10x_fsmc.o
FSMC_PCCARDStructInit                             Libraries\STM32F10x_StdPeriph_Driver\src\stm32f10x_fsmc.o
GPIO_AFIODeInit                                   Libraries\STM32F10x_StdPeriph_Driver\src\stm32f10x_gpio.o
GPIO_DeInit                                       Libraries\STM32F10x_StdPeriph_Driver\src\stm32f10x_gpio.o
GPIO_ETH_MediaInterfaceConfig                     Libraries\STM32F10x_StdPeriph_Driver\src\stm32f10x_gpio.o
GPIO_EXTILineConfig                               Libraries\STM32F10x_StdPeriph_Driver\src\stm32f10x_gpio.o
                                                  BSP\AM2302\src\ADCT_DHT22_exti.o
GPIO_EventOutputCmd                               Libraries\STM32F10x_StdPeriph_Driver\src\stm32f10x_gpio.o
GPIO_EventOutputConfig                            Libraries\STM32F10x_StdPeriph_Driver\src\stm32f10x_gpio.o
GPIO_Init                                         Libraries\STM32F10x_StdPeriph_Driver\src\stm32f10x_gpio.o
                                                  BSP\SENSOR\src\ADCT_Sensor.o
                                                  BSP\RELAY\src\ADCT_Relay.o
                                                  BSP\PhSensor\src\ADCT_PhSensor.o
                                                  BSP\PZEM004T\src\PZEM004T.o
                                                  BSP\MODBUS\port\portserial.o
                                                  BSP\BUTTON\src\tm_stm32_button.o
                                                  BSP\AT24C64\src\ADCT_AT24C64.o
                                                  BSP\AM2302\src\ADCT_DHT22.o
GPIO_PinLockConfig                                Libraries\STM32F10x_StdPeriph_Driver\src\stm32f10x_gpio.o
GPIO_PinRemapConfig                               Libraries\STM32F10x_StdPeriph_Driver\src\stm32f10x_gpio.o
GPIO_ReadInputData                                Libraries\STM32F10x_StdPeriph_Driver\src\stm32f10x_gpio.o
GPIO_ReadInputDataBit                             Libraries\STM32F10x_StdPeriph_Driver\src\stm32f10x_gpio.o
                                                  BSP\BUTTON\src\tm_stm32_button.o
                                                  BSP\AM2302\src\ADCT_DHT22_exti.o
                                                  Apps\src\ADCT_BGS_State.o
GPIO_ReadOutputData                               Libraries\STM32F10x_StdPeriph_Driver\src\stm32f10x_gpio.o
GPIO_ReadOutputDataBit                            Libraries\STM32F10x_StdPeriph_Driver\src\stm32f10x_gpio.o
                                                  Apps\src\ADCT_BGS_State.o
                                                  Apps\src\ADCT_BGS_Modbus.o
GPIO_ResetBits                                    Libraries\STM32F10x_StdPeriph_Driver\src\stm32f10x_gpio.o
                                                  src\main.o
                                                  BSP\MODBUS\port\portserial.o
                                                  BSP\AM2302\src\ADCT_DHT22.o
                                                  Apps\src\ADCT_BGS_System.o
GPIO_SetBits                                      Libraries\STM32F10x_StdPeriph_Driver\src\stm32f10x_gpio.o
                                                  src\main.o
                                                  BSP\MODBUS\port\portserial.o
                                                  BSP\AM2302\src\ADCT_DHT22.o
                                                  Apps\src\ADCT_BGS_System.o
GPIO_StructInit                                   Libraries\STM32F10x_StdPeriph_Driver\src\stm32f10x_gpio.o
GPIO_Write                                        Libraries\STM32F10x_StdPeriph_Driver\src\stm32f10x_gpio.o
GPIO_WriteBit                                     Libraries\STM32F10x_StdPeriph_Driver\src\stm32f10x_gpio.o
GTempSetting                                      Apps\src\ADCT_BGS_Modbus.o
GstSystemSetting                                  Apps\src\ADCT_BGS_System.o
                                                  src\main.o
                                                  Apps\src\ADCT_BGS_Modbus.o
GstSystemStatus                                   Apps\src\ADCT_BGS_System.o
                                                  src\main.o
                                                  BSP\PZEM004T\src\PZEM004T.o
                                                  Apps\src\ADCT_BGS_State.o
                                                  Apps\src\ADCT_BGS_Modbus.o
                                                  ASW_Task\src\ADCT_BGS_BSW_Task.o
GstSystemWarning                                  Apps\src\ADCT_BGS_System.o
                                                  Apps\src\ADCT_BGS_Modbus.o
HAL_Delay                                         BSP\delay\src\ADCT_BGS_FPT_Delay.o
HAL_GetTick                                       BSP\delay\src\ADCT_BGS_FPT_Delay.o
HAL_IncTick                                       BSP\delay\src\ADCT_BGS_FPT_Delay.o
                                                  src\stm32f1xx_it.o
HardFault_Handler                                 src\stm32f1xx_it.o
                                                  src\startup_stm32f10x_md.o
I2C1_ER_IRQHandler                                src\startup_stm32f10x_md.o
I2C1_EV_IRQHandler                                src\startup_stm32f10x_md.o
I2C2_ER_IRQHandler                                src\startup_stm32f10x_md.o
I2C2_EV_IRQHandler                                src\startup_stm32f10x_md.o
I2C_ARPCmd                                        Libraries\STM32F10x_StdPeriph_Driver\src\stm32f10x_i2c.o
I2C_AcknowledgeConfig                             Libraries\STM32F10x_StdPeriph_Driver\src\stm32f10x_i2c.o
                                                  BSP\AT24C64\src\ADCT_AT24C64.o
I2C_CalculatePEC                                  Libraries\STM32F10x_StdPeriph_Driver\src\stm32f10x_i2c.o
I2C_CheckEvent                                    Libraries\STM32F10x_StdPeriph_Driver\src\stm32f10x_i2c.o
                                                  BSP\AT24C64\src\ADCT_AT24C64.o
I2C_ClearFlag                                     Libraries\STM32F10x_StdPeriph_Driver\src\stm32f10x_i2c.o
                                                  BSP\AT24C64\src\ADCT_AT24C64.o
I2C_ClearITPendingBit                             Libraries\STM32F10x_StdPeriph_Driver\src\stm32f10x_i2c.o
I2C_Cmd                                           Libraries\STM32F10x_StdPeriph_Driver\src\stm32f10x_i2c.o
                                                  BSP\AT24C64\src\ADCT_AT24C64.o
I2C_DMACmd                                        Libraries\STM32F10x_StdPeriph_Driver\src\stm32f10x_i2c.o
                                                  BSP\AT24C64\src\ADCT_AT24C64.o
I2C_DMALastTransferCmd                            Libraries\STM32F10x_StdPeriph_Driver\src\stm32f10x_i2c.o
                                                  BSP\AT24C64\src\ADCT_AT24C64.o
I2C_DeInit                                        Libraries\STM32F10x_StdPeriph_Driver\src\stm32f10x_i2c.o
                                                  BSP\AT24C64\src\ADCT_AT24C64.o
I2C_DualAddressCmd                                Libraries\STM32F10x_StdPeriph_Driver\src\stm32f10x_i2c.o
I2C_FastModeDutyCycleConfig                       Libraries\STM32F10x_StdPeriph_Driver\src\stm32f10x_i2c.o
I2C_GeneralCallCmd                                Libraries\STM32F10x_StdPeriph_Driver\src\stm32f10x_i2c.o
I2C_GenerateSTART                                 Libraries\STM32F10x_StdPeriph_Driver\src\stm32f10x_i2c.o
                                                  BSP\AT24C64\src\ADCT_AT24C64.o
I2C_GenerateSTOP                                  Libraries\STM32F10x_StdPeriph_Driver\src\stm32f10x_i2c.o
                                                  BSP\AT24C64\src\ADCT_AT24C64.o
I2C_GetFlagStatus                                 Libraries\STM32F10x_StdPeriph_Driver\src\stm32f10x_i2c.o
                                                  BSP\AT24C64\src\ADCT_AT24C64.o
I2C_GetITStatus                                   Libraries\STM32F10x_StdPeriph_Driver\src\stm32f10x_i2c.o
I2C_GetLastEvent                                  Libraries\STM32F10x_StdPeriph_Driver\src\stm32f10x_i2c.o
I2C_GetPEC                                        Libraries\STM32F10x_StdPeriph_Driver\src\stm32f10x_i2c.o
I2C_ITConfig                                      Libraries\STM32F10x_StdPeriph_Driver\src\stm32f10x_i2c.o
I2C_Init                                          Libraries\STM32F10x_StdPeriph_Driver\src\stm32f10x_i2c.o
                                                  BSP\AT24C64\src\ADCT_AT24C64.o
I2C_NACKPositionConfig                            Libraries\STM32F10x_StdPeriph_Driver\src\stm32f10x_i2c.o
I2C_OwnAddress2Config                             Libraries\STM32F10x_StdPeriph_Driver\src\stm32f10x_i2c.o
I2C_PECPositionConfig                             Libraries\STM32F10x_StdPeriph_Driver\src\stm32f10x_i2c.o
I2C_ReadRegister                                  Libraries\STM32F10x_StdPeriph_Driver\src\stm32f10x_i2c.o
I2C_ReceiveData                                   Libraries\STM32F10x_StdPeriph_Driver\src\stm32f10x_i2c.o
                                                  BSP\AT24C64\src\ADCT_AT24C64.o
I2C_SMBusAlertConfig                              Libraries\STM32F10x_StdPeriph_Driver\src\stm32f10x_i2c.o
I2C_Send7bitAddress                               Libraries\STM32F10x_StdPeriph_Driver\src\stm32f10x_i2c.o
                                                  BSP\AT24C64\src\ADCT_AT24C64.o
I2C_SendData                                      Libraries\STM32F10x_StdPeriph_Driver\src\stm32f10x_i2c.o
                                                  BSP\AT24C64\src\ADCT_AT24C64.o
I2C_SoftwareResetCmd                              Libraries\STM32F10x_StdPeriph_Driver\src\stm32f10x_i2c.o
I2C_StretchClockCmd                               Libraries\STM32F10x_StdPeriph_Driver\src\stm32f10x_i2c.o
I2C_StructInit                                    Libraries\STM32F10x_StdPeriph_Driver\src\stm32f10x_i2c.o
I2C_TransmitPEC                                   Libraries\STM32F10x_StdPeriph_Driver\src\stm32f10x_i2c.o
I2S_Cmd                                           Libraries\STM32F10x_StdPeriph_Driver\src\stm32f10x_spi.o
I2S_Init                                          Libraries\STM32F10x_StdPeriph_Driver\src\stm32f10x_spi.o
I2S_StructInit                                    Libraries\STM32F10x_StdPeriph_Driver\src\stm32f10x_spi.o
IP_addr                                           BSP\PZEM004T\src\PZEM004T.o
IWDG_Enable                                       Libraries\STM32F10x_StdPeriph_Driver\src\stm32f10x_iwdg.o
IWDG_GetFlagStatus                                Libraries\STM32F10x_StdPeriph_Driver\src\stm32f10x_iwdg.o
IWDG_ReloadCounter                                Libraries\STM32F10x_StdPeriph_Driver\src\stm32f10x_iwdg.o
IWDG_SetPrescaler                                 Libraries\STM32F10x_StdPeriph_Driver\src\stm32f10x_iwdg.o
IWDG_SetReload                                    Libraries\STM32F10x_StdPeriph_Driver\src\stm32f10x_iwdg.o
IWDG_WriteAccessCmd                               Libraries\STM32F10x_StdPeriph_Driver\src\stm32f10x_iwdg.o
MemManage_Handler                                 src\stm32f1xx_it.o
                                                  src\startup_stm32f10x_md.o
NMI_Handler                                       src\stm32f1xx_it.o
                                                  src\startup_stm32f10x_md.o
NVIC_Init                                         Libraries\STM32F10x_StdPeriph_Driver\src\misc.o
                                                  BSP\RTC\src\ADCT_RTC.o
                                                  BSP\PZEM004T\src\PZEM004T.o
                                                  BSP\MODBUS\port\porttimer.o
                                                  BSP\MODBUS\port\portserial.o
                                                  BSP\AT24C64\src\ADCT_AT24C64.o
                                                  BSP\AM2302\src\ADCT_DHT22_exti.o
NVIC_PriorityGroupConfig                          Libraries\STM32F10x_StdPeriph_Driver\src\misc.o
                                                  src\main.o
NVIC_SetVectorTable                               Libraries\STM32F10x_StdPeriph_Driver\src\misc.o
NVIC_SystemLPConfig                               Libraries\STM32F10x_StdPeriph_Driver\src\misc.o
PVD_IRQHandler                                    src\startup_stm32f10x_md.o
PWR_BackupAccessCmd                               Libraries\STM32F10x_StdPeriph_Driver\src\stm32f10x_pwr.o
                                                  BSP\RTC\src\ADCT_RTC.o
PWR_ClearFlag                                     Libraries\STM32F10x_StdPeriph_Driver\src\stm32f10x_pwr.o
PWR_DeInit                                        Libraries\STM32F10x_StdPeriph_Driver\src\stm32f10x_pwr.o
PWR_EnterSTANDBYMode                              Libraries\STM32F10x_StdPeriph_Driver\src\stm32f10x_pwr.o
PWR_EnterSTOPMode                                 Libraries\STM32F10x_StdPeriph_Driver\src\stm32f10x_pwr.o
PWR_GetFlagStatus                                 Libraries\STM32F10x_StdPeriph_Driver\src\stm32f10x_pwr.o
PWR_PVDCmd                                        Libraries\STM32F10x_StdPeriph_Driver\src\stm32f10x_pwr.o
                                                  BSP\RTC\src\ADCT_RTC.o
PWR_PVDLevelConfig                                Libraries\STM32F10x_StdPeriph_Driver\src\stm32f10x_pwr.o
                                                  BSP\RTC\src\ADCT_RTC.o
PWR_WakeUpPinCmd                                  Libraries\STM32F10x_StdPeriph_Driver\src\stm32f10x_pwr.o
PZEM004T_RxCallback                               BSP\PZEM004T\src\PZEM004T.o
PZEM004T_TxCallback                               BSP\PZEM004T\src\PZEM004T.o
PendSV_Handler                                    src\stm32f1xx_it.o
                                                  src\startup_stm32f10x_md.o
RCC_ADCCLKConfig                                  Libraries\STM32F10x_StdPeriph_Driver\src\stm32f10x_rcc.o
RCC_AHBPeriphClockCmd                             Libraries\STM32F10x_StdPeriph_Driver\src\stm32f10x_rcc.o
                                                  BSP\AT24C64\src\ADCT_AT24C64.o
RCC_APB1PeriphClockCmd                            Libraries\STM32F10x_StdPeriph_Driver\src\stm32f10x_rcc.o
                                                  BSP\RTC\src\ADCT_RTC.o
                                                  BSP\MODBUS\port\porttimer.o
                                                  BSP\MODBUS\port\portserial.o
                                                  BSP\AT24C64\src\ADCT_AT24C64.o
RCC_APB1PeriphResetCmd                            Libraries\STM32F10x_StdPeriph_Driver\src\stm32f10x_rcc.o
                                                  Libraries\STM32F10x_StdPeriph_Driver\src\stm32f10x_wwdg.o
                                                  Libraries\STM32F10x_StdPeriph_Driver\src\stm32f10x_usart.o
                                                  Libraries\STM32F10x_StdPeriph_Driver\src\stm32f10x_tim.o
                                                  Libraries\STM32F10x_StdPeriph_Driver\src\stm32f10x_spi.o
                                                  Libraries\STM32F10x_StdPeriph_Driver\src\stm32f10x_pwr.o
                                                  Libraries\STM32F10x_StdPeriph_Driver\src\stm32f10x_i2c.o
                                                  Libraries\STM32F10x_StdPeriph_Driver\src\stm32f10x_dac.o
                                                  Libraries\STM32F10x_StdPeriph_Driver\src\stm32f10x_cec.o
                                                  Libraries\STM32F10x_StdPeriph_Driver\src\stm32f10x_can.o
RCC_APB2PeriphClockCmd                            Libraries\STM32F10x_StdPeriph_Driver\src\stm32f10x_rcc.o
                                                  BSP\SENSOR\src\ADCT_Sensor.o
                                                  BSP\RELAY\src\ADCT_Relay.o
                                                  BSP\PhSensor\src\ADCT_PhSensor.o
                                                  BSP\PZEM004T\src\PZEM004T.o
                                                  BSP\MODBUS\port\portserial.o
                                                  BSP\BUTTON\src\tm_stm32_button.o
                                                  BSP\AT24C64\src\ADCT_AT24C64.o
                                                  BSP\AM2302\src\ADCT_DHT22.o
RCC_APB2PeriphResetCmd                            Libraries\STM32F10x_StdPeriph_Driver\src\stm32f10x_rcc.o
                                                  Libraries\STM32F10x_StdPeriph_Driver\src\stm32f10x_usart.o
                                                  Libraries\STM32F10x_StdPeriph_Driver\src\stm32f10x_tim.o
                                                  Libraries\STM32F10x_StdPeriph_Driver\src\stm32f10x_spi.o
                                                  Libraries\STM32F10x_StdPeriph_Driver\src\stm32f10x_gpio.o
                                                  Libraries\STM32F10x_StdPeriph_Driver\src\stm32f10x_adc.o
RCC_AdjustHSICalibrationValue                     Libraries\STM32F10x_StdPeriph_Driver\src\stm32f10x_rcc.o
RCC_BackupResetCmd                                Libraries\STM32F10x_StdPeriph_Driver\src\stm32f10x_rcc.o
                                                  Libraries\STM32F10x_StdPeriph_Driver\src\stm32f10x_bkp.o
RCC_ClearFlag                                     Libraries\STM32F10x_StdPeriph_Driver\src\stm32f10x_rcc.o
RCC_ClearITPendingBit                             Libraries\STM32F10x_StdPeriph_Driver\src\stm32f10x_rcc.o
RCC_ClockSecuritySystemCmd                        Libraries\STM32F10x_StdPeriph_Driver\src\stm32f10x_rcc.o
RCC_DeInit                                        Libraries\STM32F10x_StdPeriph_Driver\src\stm32f10x_rcc.o
RCC_GetClocksFreq                                 Libraries\STM32F10x_StdPeriph_Driver\src\stm32f10x_rcc.o
                                                  Libraries\STM32F10x_StdPeriph_Driver\src\stm32f10x_usart.o
                                                  Libraries\STM32F10x_StdPeriph_Driver\src\stm32f10x_spi.o
                                                  Libraries\STM32F10x_StdPeriph_Driver\src\stm32f10x_i2c.o
RCC_GetFlagStatus                                 Libraries\STM32F10x_StdPeriph_Driver\src\stm32f10x_rcc.o
                                                  BSP\RTC\src\ADCT_RTC.o
RCC_GetITStatus                                   Libraries\STM32F10x_StdPeriph_Driver\src\stm32f10x_rcc.o
RCC_GetSYSCLKSource                               Libraries\STM32F10x_StdPeriph_Driver\src\stm32f10x_rcc.o
                                                  BSP\RTC\src\ADCT_RTC.o
RCC_HCLKConfig                                    Libraries\STM32F10x_StdPeriph_Driver\src\stm32f10x_rcc.o
                                                  BSP\RTC\src\ADCT_RTC.o
RCC_HSEConfig                                     Libraries\STM32F10x_StdPeriph_Driver\src\stm32f10x_rcc.o
RCC_HSICmd                                        Libraries\STM32F10x_StdPeriph_Driver\src\stm32f10x_rcc.o
RCC_IRQHandler                                    src\startup_stm32f10x_md.o
RCC_ITConfig                                      Libraries\STM32F10x_StdPeriph_Driver\src\stm32f10x_rcc.o
RCC_LSEConfig                                     Libraries\STM32F10x_StdPeriph_Driver\src\stm32f10x_rcc.o
                                                  BSP\RTC\src\ADCT_RTC.o
RCC_LSICmd                                        Libraries\STM32F10x_StdPeriph_Driver\src\stm32f10x_rcc.o
RCC_MCOConfig                                     Libraries\STM32F10x_StdPeriph_Driver\src\stm32f10x_rcc.o
RCC_PCLK1Config                                   Libraries\STM32F10x_StdPeriph_Driver\src\stm32f10x_rcc.o
                                                  BSP\RTC\src\ADCT_RTC.o
RCC_PCLK2Config                                   Libraries\STM32F10x_StdPeriph_Driver\src\stm32f10x_rcc.o
                                                  BSP\RTC\src\ADCT_RTC.o
RCC_PLLCmd                                        Libraries\STM32F10x_StdPeriph_Driver\src\stm32f10x_rcc.o
                                                  BSP\RTC\src\ADCT_RTC.o
RCC_PLLConfig                                     Libraries\STM32F10x_StdPeriph_Driver\src\stm32f10x_rcc.o
                                                  BSP\RTC\src\ADCT_RTC.o
RCC_RTCCLKCmd                                     Libraries\STM32F10x_StdPeriph_Driver\src\stm32f10x_rcc.o
                                                  BSP\RTC\src\ADCT_RTC.o
RCC_RTCCLKConfig                                  Libraries\STM32F10x_StdPeriph_Driver\src\stm32f10x_rcc.o
                                                  BSP\RTC\src\ADCT_RTC.o
RCC_SYSCLKConfig                                  Libraries\STM32F10x_StdPeriph_Driver\src\stm32f10x_rcc.o
                                                  BSP\RTC\src\ADCT_RTC.o
RCC_USBCLKConfig                                  Libraries\STM32F10x_StdPeriph_Driver\src\stm32f10x_rcc.o
RCC_WaitForHSEStartUp                             Libraries\STM32F10x_StdPeriph_Driver\src\stm32f10x_rcc.o
                                                  BSP\RTC\src\ADCT_RTC.o
RTCAlarm_IRQHandler                               src\startup_stm32f10x_md.o
RTC_ClearFlag                                     Libraries\STM32F10x_StdPeriph_Driver\src\stm32f10x_rtc.o
RTC_ClearITPendingBit                             Libraries\STM32F10x_StdPeriph_Driver\src\stm32f10x_rtc.o
                                                  BSP\RTC\src\ADCT_RTC.o
RTC_Configuration                                 BSP\RTC\src\ADCT_RTC.o
RTC_EnterConfigMode                               Libraries\STM32F10x_StdPeriph_Driver\src\stm32f10x_rtc.o
RTC_ExitConfigMode                                Libraries\STM32F10x_StdPeriph_Driver\src\stm32f10x_rtc.o
RTC_GetCounter                                    Libraries\STM32F10x_StdPeriph_Driver\src\stm32f10x_rtc.o
                                                  BSP\RTC\src\ADCT_RTC.o
RTC_GetDivider                                    Libraries\STM32F10x_StdPeriph_Driver\src\stm32f10x_rtc.o
RTC_GetFlagStatus                                 Libraries\STM32F10x_StdPeriph_Driver\src\stm32f10x_rtc.o
RTC_GetITStatus                                   Libraries\STM32F10x_StdPeriph_Driver\src\stm32f10x_rtc.o
                                                  BSP\RTC\src\ADCT_RTC.o
RTC_IRQHandler                                    BSP\RTC\src\ADCT_RTC.o
RTC_ITConfig                                      Libraries\STM32F10x_StdPeriph_Driver\src\stm32f10x_rtc.o
                                                  BSP\RTC\src\ADCT_RTC.o
RTC_NVIC_Configuration                            BSP\RTC\src\ADCT_RTC.o
RTC_RCC_Configuration                             BSP\RTC\src\ADCT_RTC.o
RTC_SetAlarm                                      Libraries\STM32F10x_StdPeriph_Driver\src\stm32f10x_rtc.o
RTC_SetCounter                                    Libraries\STM32F10x_StdPeriph_Driver\src\stm32f10x_rtc.o
                                                  BSP\RTC\src\ADCT_RTC.o
RTC_SetPrescaler                                  Libraries\STM32F10x_StdPeriph_Driver\src\stm32f10x_rtc.o
                                                  BSP\RTC\src\ADCT_RTC.o
RTC_WaitForLastTask                               Libraries\STM32F10x_StdPeriph_Driver\src\stm32f10x_rtc.o
                                                  BSP\RTC\src\ADCT_RTC.o
RTC_WaitForSynchro                                Libraries\STM32F10x_StdPeriph_Driver\src\stm32f10x_rtc.o
Reset_Handler                                     src\startup_stm32f10x_md.o
Restart_DHT22                                     src\main.o
SDIO_CEATAITCmd                                   Libraries\STM32F10x_StdPeriph_Driver\src\stm32f10x_sdio.o
SDIO_ClearFlag                                    Libraries\STM32F10x_StdPeriph_Driver\src\stm32f10x_sdio.o
SDIO_ClearITPendingBit                            Libraries\STM32F10x_StdPeriph_Driver\src\stm32f10x_sdio.o
SDIO_ClockCmd                                     Libraries\STM32F10x_StdPeriph_Driver\src\stm32f10x_sdio.o
SDIO_CmdStructInit                                Libraries\STM32F10x_StdPeriph_Driver\src\stm32f10x_sdio.o
SDIO_CommandCompletionCmd                         Libraries\STM32F10x_StdPeriph_Driver\src\stm32f10x_sdio.o
SDIO_DMACmd                                       Libraries\STM32F10x_StdPeriph_Driver\src\stm32f10x_sdio.o
SDIO_DataConfig                                   Libraries\STM32F10x_StdPeriph_Driver\src\stm32f10x_sdio.o
SDIO_DataStructInit                               Libraries\STM32F10x_StdPeriph_Driver\src\stm32f10x_sdio.o
SDIO_DeInit                                       Libraries\STM32F10x_StdPeriph_Driver\src\stm32f10x_sdio.o
SDIO_GetCommandResponse                           Libraries\STM32F10x_StdPeriph_Driver\src\stm32f10x_sdio.o
SDIO_GetDataCounter                               Libraries\STM32F10x_StdPeriph_Driver\src\stm32f10x_sdio.o
SDIO_GetFIFOCount                                 Libraries\STM32F10x_StdPeriph_Driver\src\stm32f10x_sdio.o
SDIO_GetFlagStatus                                Libraries\STM32F10x_StdPeriph_Driver\src\stm32f10x_sdio.o
SDIO_GetITStatus                                  Libraries\STM32F10x_StdPeriph_Driver\src\stm32f10x_sdio.o
SDIO_GetPowerState                                Libraries\STM32F10x_StdPeriph_Driver\src\stm32f10x_sdio.o
SDIO_GetResponse                                  Libraries\STM32F10x_StdPeriph_Driver\src\stm32f10x_sdio.o
SDIO_ITConfig                                     Libraries\STM32F10x_StdPeriph_Driver\src\stm32f10x_sdio.o
SDIO_Init                                         Libraries\STM32F10x_StdPeriph_Driver\src\stm32f10x_sdio.o
SDIO_ReadData                                     Libraries\STM32F10x_StdPeriph_Driver\src\stm32f10x_sdio.o
SDIO_SendCEATACmd                                 Libraries\STM32F10x_StdPeriph_Driver\src\stm32f10x_sdio.o
SDIO_SendCommand                                  Libraries\STM32F10x_StdPeriph_Driver\src\stm32f10x_sdio.o
SDIO_SendSDIOSuspendCmd                           Libraries\STM32F10x_StdPeriph_Driver\src\stm32f10x_sdio.o
SDIO_SetPowerState                                Libraries\STM32F10x_StdPeriph_Driver\src\stm32f10x_sdio.o
SDIO_SetSDIOOperation                             Libraries\STM32F10x_StdPeriph_Driver\src\stm32f10x_sdio.o
SDIO_SetSDIOReadWaitMode                          Libraries\STM32F10x_StdPeriph_Driver\src\stm32f10x_sdio.o
SDIO_StartSDIOReadWait                            Libraries\STM32F10x_StdPeriph_Driver\src\stm32f10x_sdio.o
SDIO_StopSDIOReadWait                             Libraries\STM32F10x_StdPeriph_Driver\src\stm32f10x_sdio.o
SDIO_StructInit                                   Libraries\STM32F10x_StdPeriph_Driver\src\stm32f10x_sdio.o
SDIO_WriteData                                    Libraries\STM32F10x_StdPeriph_Driver\src\stm32f10x_sdio.o
SPI1_IRQHandler                                   src\startup_stm32f10x_md.o
SPI2_IRQHandler                                   src\startup_stm32f10x_md.o
SPI_BiDirectionalLineConfig                       Libraries\STM32F10x_StdPeriph_Driver\src\stm32f10x_spi.o
SPI_CalculateCRC                                  Libraries\STM32F10x_StdPeriph_Driver\src\stm32f10x_spi.o
SPI_Cmd                                           Libraries\STM32F10x_StdPeriph_Driver\src\stm32f10x_spi.o
SPI_DataSizeConfig                                Libraries\STM32F10x_StdPeriph_Driver\src\stm32f10x_spi.o
SPI_GetCRC                                        Libraries\STM32F10x_StdPeriph_Driver\src\stm32f10x_spi.o
SPI_GetCRCPolynomial                              Libraries\STM32F10x_StdPeriph_Driver\src\stm32f10x_spi.o
SPI_I2S_ClearFlag                                 Libraries\STM32F10x_StdPeriph_Driver\src\stm32f10x_spi.o
SPI_I2S_ClearITPendingBit                         Libraries\STM32F10x_StdPeriph_Driver\src\stm32f10x_spi.o
SPI_I2S_DMACmd                                    Libraries\STM32F10x_StdPeriph_Driver\src\stm32f10x_spi.o
SPI_I2S_DeInit                                    Libraries\STM32F10x_StdPeriph_Driver\src\stm32f10x_spi.o
SPI_I2S_GetFlagStatus                             Libraries\STM32F10x_StdPeriph_Driver\src\stm32f10x_spi.o
SPI_I2S_GetITStatus                               Libraries\STM32F10x_StdPeriph_Driver\src\stm32f10x_spi.o
SPI_I2S_ITConfig                                  Libraries\STM32F10x_StdPeriph_Driver\src\stm32f10x_spi.o
SPI_I2S_ReceiveData                               Libraries\STM32F10x_StdPeriph_Driver\src\stm32f10x_spi.o
SPI_I2S_SendData                                  Libraries\STM32F10x_StdPeriph_Driver\src\stm32f10x_spi.o
SPI_Init                                          Libraries\STM32F10x_StdPeriph_Driver\src\stm32f10x_spi.o
SPI_NSSInternalSoftwareConfig                     Libraries\STM32F10x_StdPeriph_Driver\src\stm32f10x_spi.o
SPI_SSOutputCmd                                   Libraries\STM32F10x_StdPeriph_Driver\src\stm32f10x_spi.o
SPI_StructInit                                    Libraries\STM32F10x_StdPeriph_Driver\src\stm32f10x_spi.o
SPI_TransmitCRC                                   Libraries\STM32F10x_StdPeriph_Driver\src\stm32f10x_spi.o
SVC_Handler                                       src\stm32f1xx_it.o
                                                  src\startup_stm32f10x_md.o
SampleData_pu16                                   BSP\PhSensor\src\ADCT_PhSensor.o
SetDate                                           BSP\RTC\src\ADCT_RTC.o
SetTime                                           BSP\RTC\src\ADCT_RTC.o
Simulation_data_BE                                src\main.o
StartTime                                         src\main.o
SummerTimeCorrect                                 BSP\RTC\src\ADCT_RTC.o
SummerTimeCorrection                              BSP\RTC\src\ADCT_RTC.o
SysTick_CLKSourceConfig                           Libraries\STM32F10x_StdPeriph_Driver\src\misc.o
SysTick_Handler                                   src\stm32f1xx_it.o
                                                  src\startup_stm32f10x_md.o
SystemCoreClock                                   src\system_stm32f10x.o
                                                  BSP\delay\src\ADCT_BGS_FPT_Delay.o
                                                  BSP\AM2302\src\ADCT_DHT22.o
SystemCoreClockUpdate                             src\system_stm32f10x.o
SystemInit                                        src\system_stm32f10x.o
                                                  src\startup_stm32f10x_md.o
TAMPER_IRQHandler                                 src\startup_stm32f10x_md.o
TIM1_BRK_IRQHandler                               src\startup_stm32f10x_md.o
TIM1_CC_IRQHandler                                src\startup_stm32f10x_md.o
TIM1_TRG_COM_IRQHandler                           src\startup_stm32f10x_md.o
TIM1_UP_IRQHandler                                src\startup_stm32f10x_md.o
TIM2_IRQHandler                                   src\startup_stm32f10x_md.o
TIM3_IRQHandler                                   src\startup_stm32f10x_md.o
TIM4_IRQHandler                                   BSP\MODBUS\port\porttimer.o
TIM_ARRPreloadConfig                              Libraries\STM32F10x_StdPeriph_Driver\src\stm32f10x_tim.o
TIM_BDTRConfig                                    Libraries\STM32F10x_StdPeriph_Driver\src\stm32f10x_tim.o
TIM_BDTRStructInit                                Libraries\STM32F10x_StdPeriph_Driver\src\stm32f10x_tim.o
TIM_CCPreloadControl                              Libraries\STM32F10x_StdPeriph_Driver\src\stm32f10x_tim.o
TIM_CCxCmd                                        Libraries\STM32F10x_StdPeriph_Driver\src\stm32f10x_tim.o
TIM_CCxNCmd                                       Libraries\STM32F10x_StdPeriph_Driver\src\stm32f10x_tim.o
TIM_ClearFlag                                     Libraries\STM32F10x_StdPeriph_Driver\src\stm32f10x_tim.o
TIM_ClearITPendingBit                             Libraries\STM32F10x_StdPeriph_Driver\src\stm32f10x_tim.o
                                                  BSP\MODBUS\port\porttimer.o
TIM_ClearOC1Ref                                   Libraries\STM32F10x_StdPeriph_Driver\src\stm32f10x_tim.o
TIM_ClearOC2Ref                                   Libraries\STM32F10x_StdPeriph_Driver\src\stm32f10x_tim.o
TIM_ClearOC3Ref                                   Libraries\STM32F10x_StdPeriph_Driver\src\stm32f10x_tim.o
TIM_ClearOC4Ref                                   Libraries\STM32F10x_StdPeriph_Driver\src\stm32f10x_tim.o
TIM_Cmd                                           Libraries\STM32F10x_StdPeriph_Driver\src\stm32f10x_tim.o
                                                  BSP\MODBUS\port\porttimer.o
TIM_CounterModeConfig                             Libraries\STM32F10x_StdPeriph_Driver\src\stm32f10x_tim.o
TIM_CtrlPWMOutputs                                Libraries\STM32F10x_StdPeriph_Driver\src\stm32f10x_tim.o
TIM_DMACmd                                        Libraries\STM32F10x_StdPeriph_Driver\src\stm32f10x_tim.o
TIM_DMAConfig                                     Libraries\STM32F10x_StdPeriph_Driver\src\stm32f10x_tim.o
TIM_DeInit                                        Libraries\STM32F10x_StdPeriph_Driver\src\stm32f10x_tim.o
TIM_ETRClockMode1Config                           Libraries\STM32F10x_StdPeriph_Driver\src\stm32f10x_tim.o
TIM_ETRClockMode2Config                           Libraries\STM32F10x_StdPeriph_Driver\src\stm32f10x_tim.o
TIM_ETRConfig                                     Libraries\STM32F10x_StdPeriph_Driver\src\stm32f10x_tim.o
TIM_EncoderInterfaceConfig                        Libraries\STM32F10x_StdPeriph_Driver\src\stm32f10x_tim.o
TIM_ForcedOC1Config                               Libraries\STM32F10x_StdPeriph_Driver\src\stm32f10x_tim.o
TIM_ForcedOC2Config                               Libraries\STM32F10x_StdPeriph_Driver\src\stm32f10x_tim.o
TIM_ForcedOC3Config                               Libraries\STM32F10x_StdPeriph_Driver\src\stm32f10x_tim.o
TIM_ForcedOC4Config                               Libraries\STM32F10x_StdPeriph_Driver\src\stm32f10x_tim.o
TIM_GenerateEvent                                 Libraries\STM32F10x_StdPeriph_Driver\src\stm32f10x_tim.o
TIM_GetCapture1                                   Libraries\STM32F10x_StdPeriph_Driver\src\stm32f10x_tim.o
TIM_GetCapture2                                   Libraries\STM32F10x_StdPeriph_Driver\src\stm32f10x_tim.o
TIM_GetCapture3                                   Libraries\STM32F10x_StdPeriph_Driver\src\stm32f10x_tim.o
TIM_GetCapture4                                   Libraries\STM32F10x_StdPeriph_Driver\src\stm32f10x_tim.o
TIM_GetCounter                                    Libraries\STM32F10x_StdPeriph_Driver\src\stm32f10x_tim.o
TIM_GetFlagStatus                                 Libraries\STM32F10x_StdPeriph_Driver\src\stm32f10x_tim.o
TIM_GetITStatus                                   Libraries\STM32F10x_StdPeriph_Driver\src\stm32f10x_tim.o
                                                  BSP\MODBUS\port\porttimer.o
TIM_GetPrescaler                                  Libraries\STM32F10x_StdPeriph_Driver\src\stm32f10x_tim.o
TIM_ICInit                                        Libraries\STM32F10x_StdPeriph_Driver\src\stm32f10x_tim.o
TIM_ICStructInit                                  Libraries\STM32F10x_StdPeriph_Driver\src\stm32f10x_tim.o
TIM_ITConfig                                      Libraries\STM32F10x_StdPeriph_Driver\src\stm32f10x_tim.o
                                                  BSP\MODBUS\port\porttimer.o
TIM_ITRxExternalClockConfig                       Libraries\STM32F10x_StdPeriph_Driver\src\stm32f10x_tim.o
TIM_InternalClockConfig                           Libraries\STM32F10x_StdPeriph_Driver\src\stm32f10x_tim.o
TIM_OC1FastConfig                                 Libraries\STM32F10x_StdPeriph_Driver\src\stm32f10x_tim.o
TIM_OC1Init                                       Libraries\STM32F10x_StdPeriph_Driver\src\stm32f10x_tim.o
TIM_OC1NPolarityConfig                            Libraries\STM32F10x_StdPeriph_Driver\src\stm32f10x_tim.o
TIM_OC1PolarityConfig                             Libraries\STM32F10x_StdPeriph_Driver\src\stm32f10x_tim.o
TIM_OC1PreloadConfig                              Libraries\STM32F10x_StdPeriph_Driver\src\stm32f10x_tim.o
TIM_OC2FastConfig                                 Libraries\STM32F10x_StdPeriph_Driver\src\stm32f10x_tim.o
TIM_OC2Init                                       Libraries\STM32F10x_StdPeriph_Driver\src\stm32f10x_tim.o
TIM_OC2NPolarityConfig                            Libraries\STM32F10x_StdPeriph_Driver\src\stm32f10x_tim.o
TIM_OC2PolarityConfig                             Libraries\STM32F10x_StdPeriph_Driver\src\stm32f10x_tim.o
TIM_OC2PreloadConfig                              Libraries\STM32F10x_StdPeriph_Driver\src\stm32f10x_tim.o
TIM_OC3FastConfig                                 Libraries\STM32F10x_StdPeriph_Driver\src\stm32f10x_tim.o
TIM_OC3Init                                       Libraries\STM32F10x_StdPeriph_Driver\src\stm32f10x_tim.o
TIM_OC3NPolarityConfig                            Libraries\STM32F10x_StdPeriph_Driver\src\stm32f10x_tim.o
TIM_OC3PolarityConfig                             Libraries\STM32F10x_StdPeriph_Driver\src\stm32f10x_tim.o
TIM_OC3PreloadConfig                              Libraries\STM32F10x_StdPeriph_Driver\src\stm32f10x_tim.o
TIM_OC4FastConfig                                 Libraries\STM32F10x_StdPeriph_Driver\src\stm32f10x_tim.o
TIM_OC4Init                                       Libraries\STM32F10x_StdPeriph_Driver\src\stm32f10x_tim.o
TIM_OC4PolarityConfig                             Libraries\STM32F10x_StdPeriph_Driver\src\stm32f10x_tim.o
TIM_OC4PreloadConfig                              Libraries\STM32F10x_StdPeriph_Driver\src\stm32f10x_tim.o
TIM_OCStructInit                                  Libraries\STM32F10x_StdPeriph_Driver\src\stm32f10x_tim.o
TIM_PWMIConfig                                    Libraries\STM32F10x_StdPeriph_Driver\src\stm32f10x_tim.o
TIM_PrescalerConfig                               Libraries\STM32F10x_StdPeriph_Driver\src\stm32f10x_tim.o
TIM_SelectCCDMA                                   Libraries\STM32F10x_StdPeriph_Driver\src\stm32f10x_tim.o
TIM_SelectCOM                                     Libraries\STM32F10x_StdPeriph_Driver\src\stm32f10x_tim.o
TIM_SelectHallSensor                              Libraries\STM32F10x_StdPeriph_Driver\src\stm32f10x_tim.o
TIM_SelectInputTrigger                            Libraries\STM32F10x_StdPeriph_Driver\src\stm32f10x_tim.o
TIM_SelectMasterSlaveMode                         Libraries\STM32F10x_StdPeriph_Driver\src\stm32f10x_tim.o
TIM_SelectOCxM                                    Libraries\STM32F10x_StdPeriph_Driver\src\stm32f10x_tim.o
TIM_SelectOnePulseMode                            Libraries\STM32F10x_StdPeriph_Driver\src\stm32f10x_tim.o
TIM_SelectOutputTrigger                           Libraries\STM32F10x_StdPeriph_Driver\src\stm32f10x_tim.o
TIM_SelectSlaveMode                               Libraries\STM32F10x_StdPeriph_Driver\src\stm32f10x_tim.o
TIM_SetAutoreload                                 Libraries\STM32F10x_StdPeriph_Driver\src\stm32f10x_tim.o
TIM_SetClockDivision                              Libraries\STM32F10x_StdPeriph_Driver\src\stm32f10x_tim.o
TIM_SetCompare1                                   Libraries\STM32F10x_StdPeriph_Driver\src\stm32f10x_tim.o
TIM_SetCompare2                                   Libraries\STM32F10x_StdPeriph_Driver\src\stm32f10x_tim.o
TIM_SetCompare3                                   Libraries\STM32F10x_StdPeriph_Driver\src\stm32f10x_tim.o
TIM_SetCompare4                                   Libraries\STM32F10x_StdPeriph_Driver\src\stm32f10x_tim.o
TIM_SetCounter                                    Libraries\STM32F10x_StdPeriph_Driver\src\stm32f10x_tim.o
                                                  BSP\MODBUS\port\porttimer.o
TIM_SetIC1Prescaler                               Libraries\STM32F10x_StdPeriph_Driver\src\stm32f10x_tim.o
TIM_SetIC2Prescaler                               Libraries\STM32F10x_StdPeriph_Driver\src\stm32f10x_tim.o
TIM_SetIC3Prescaler                               Libraries\STM32F10x_StdPeriph_Driver\src\stm32f10x_tim.o
TIM_SetIC4Prescaler                               Libraries\STM32F10x_StdPeriph_Driver\src\stm32f10x_tim.o
TIM_TIxExternalClockConfig                        Libraries\STM32F10x_StdPeriph_Driver\src\stm32f10x_tim.o
TIM_TimeBaseInit                                  Libraries\STM32F10x_StdPeriph_Driver\src\stm32f10x_tim.o
                                                  BSP\MODBUS\port\porttimer.o
TIM_TimeBaseStructInit                            Libraries\STM32F10x_StdPeriph_Driver\src\stm32f10x_tim.o
                                                  BSP\MODBUS\port\porttimer.o
TIM_UpdateDisableConfig                           Libraries\STM32F10x_StdPeriph_Driver\src\stm32f10x_tim.o
TIM_UpdateRequestConfig                           Libraries\STM32F10x_StdPeriph_Driver\src\stm32f10x_tim.o
TM_BUTTON_Init                                    BSP\BUTTON\src\tm_stm32_button.o
                                                  BSP\BUTTON\src\ADCT_BGS_BUTTON.o
TM_BUTTON_SetPressTime                            BSP\BUTTON\src\tm_stm32_button.o
                                                  BSP\BUTTON\src\ADCT_BGS_BUTTON.o
TM_BUTTON_Update                                  BSP\BUTTON\src\tm_stm32_button.o
TM_DELAY_Init                                     BSP\delay\src\ADCT_BGS_FPT_Delay.o
                                                  src\main.o
TM_DELAY_TimerAutoReloadCommand                   BSP\delay\src\ADCT_BGS_FPT_Delay.o
TM_DELAY_TimerAutoReloadValue                     BSP\delay\src\ADCT_BGS_FPT_Delay.o
TM_DELAY_TimerCreate                              BSP\delay\src\ADCT_BGS_FPT_Delay.o
                                                  Apps\src\ADCT_BGS_System.o
                                                  ASW_Task\src\ADCT_BGS_BSW_Task.o
TM_DELAY_TimerDelete                              BSP\delay\src\ADCT_BGS_FPT_Delay.o
TM_DELAY_TimerReset                               BSP\delay\src\ADCT_BGS_FPT_Delay.o
TM_DELAY_TimerStart                               BSP\delay\src\ADCT_BGS_FPT_Delay.o
TM_DELAY_TimerStop                                BSP\delay\src\ADCT_BGS_FPT_Delay.o
TM_Time                                           BSP\delay\src\ADCT_BGS_FPT_Delay.o
                                                  BSP\PZEM004T\src\PZEM004T.o
                                                  BSP\BUTTON\src\tm_stm32_button.o
TM_Time2                                          BSP\delay\src\ADCT_BGS_FPT_Delay.o
TempStateTimer                                    Apps\src\ADCT_BGS_System.o
TestTimer                                         src\main.o
TimerGetUS                                        BSP\delay\src\ADCT_BGS_FPT_Delay.o
                                                  BSP\AM2302\src\ADCT_DHT22.o
UART_PZEM004T_Init                                BSP\PZEM004T\src\PZEM004T.o
USART1_IRQHandler                                 BSP\PZEM004T\src\PZEM004T.o
USART2_IRQHandler                                 src\startup_stm32f10x_md.o
USART3_IRQHandler                                 BSP\MODBUS\port\portserial.o
USART_ClearFlag                                   Libraries\STM32F10x_StdPeriph_Driver\src\stm32f10x_usart.o
USART_ClearITPendingBit                           Libraries\STM32F10x_StdPeriph_Driver\src\stm32f10x_usart.o
                                                  BSP\PZEM004T\src\PZEM004T.o
                                                  BSP\MODBUS\port\portserial.o
USART_ClockInit                                   Libraries\STM32F10x_StdPeriph_Driver\src\stm32f10x_usart.o
USART_ClockStructInit                             Libraries\STM32F10x_StdPeriph_Driver\src\stm32f10x_usart.o
USART_Cmd                                         Libraries\STM32F10x_StdPeriph_Driver\src\stm32f10x_usart.o
                                                  BSP\PZEM004T\src\PZEM004T.o
                                                  BSP\MODBUS\port\portserial.o
USART_DMACmd                                      Libraries\STM32F10x_StdPeriph_Driver\src\stm32f10x_usart.o
USART_DeInit                                      Libraries\STM32F10x_StdPeriph_Driver\src\stm32f10x_usart.o
USART_GetFlagStatus                               Libraries\STM32F10x_StdPeriph_Driver\src\stm32f10x_usart.o
USART_GetITStatus                                 Libraries\STM32F10x_StdPeriph_Driver\src\stm32f10x_usart.o
                                                  BSP\PZEM004T\src\PZEM004T.o
                                                  BSP\MODBUS\port\portserial.o
USART_HalfDuplexCmd                               Libraries\STM32F10x_StdPeriph_Driver\src\stm32f10x_usart.o
USART_ITConfig                                    Libraries\STM32F10x_StdPeriph_Driver\src\stm32f10x_usart.o
                                                  BSP\PZEM004T\src\PZEM004T.o
                                                  BSP\MODBUS\port\portserial.o
USART_Init                                        Libraries\STM32F10x_StdPeriph_Driver\src\stm32f10x_usart.o
                                                  BSP\PZEM004T\src\PZEM004T.o
                                                  BSP\MODBUS\port\portserial.o
USART_IrDACmd                                     Libraries\STM32F10x_StdPeriph_Driver\src\stm32f10x_usart.o
USART_IrDAConfig                                  Libraries\STM32F10x_StdPeriph_Driver\src\stm32f10x_usart.o
USART_LINBreakDetectLengthConfig                  Libraries\STM32F10x_StdPeriph_Driver\src\stm32f10x_usart.o
USART_LINCmd                                      Libraries\STM32F10x_StdPeriph_Driver\src\stm32f10x_usart.o
USART_OneBitMethodCmd                             Libraries\STM32F10x_StdPeriph_Driver\src\stm32f10x_usart.o
USART_OverSampling8Cmd                            Libraries\STM32F10x_StdPeriph_Driver\src\stm32f10x_usart.o
USART_ReceiveData                                 Libraries\STM32F10x_StdPeriph_Driver\src\stm32f10x_usart.o
                                                  BSP\PZEM004T\src\PZEM004T.o
                                                  BSP\MODBUS\port\portserial.o
USART_ReceiverWakeUpCmd                           Libraries\STM32F10x_StdPeriph_Driver\src\stm32f10x_usart.o
USART_SendBreak                                   Libraries\STM32F10x_StdPeriph_Driver\src\stm32f10x_usart.o
USART_SendData                                    Libraries\STM32F10x_StdPeriph_Driver\src\stm32f10x_usart.o
                                                  BSP\PZEM004T\src\PZEM004T.o
                                                  BSP\MODBUS\port\portserial.o
USART_SetAddress                                  Libraries\STM32F10x_StdPeriph_Driver\src\stm32f10x_usart.o
USART_SetGuardTime                                Libraries\STM32F10x_StdPeriph_Driver\src\stm32f10x_usart.o
USART_SetPrescaler                                Libraries\STM32F10x_StdPeriph_Driver\src\stm32f10x_usart.o
USART_SmartCardCmd                                Libraries\STM32F10x_StdPeriph_Driver\src\stm32f10x_usart.o
USART_SmartCardNACKCmd                            Libraries\STM32F10x_StdPeriph_Driver\src\stm32f10x_usart.o
USART_StructInit                                  Libraries\STM32F10x_StdPeriph_Driver\src\stm32f10x_usart.o
USART_WakeUpConfig                                Libraries\STM32F10x_StdPeriph_Driver\src\stm32f10x_usart.o
USBWakeUp_IRQHandler                              src\startup_stm32f10x_md.o
USB_HP_CAN1_TX_IRQHandler                         src\startup_stm32f10x_md.o
USB_LP_CAN1_RX0_IRQHandler                        src\startup_stm32f10x_md.o
UpButton                                          BSP\BUTTON\src\ADCT_BGS_BUTTON.o
UsageFault_Handler                                src\stm32f1xx_it.o
                                                  src\startup_stm32f10x_md.o
WWDG_ClearFlag                                    Libraries\STM32F10x_StdPeriph_Driver\src\stm32f10x_wwdg.o
WWDG_DeInit                                       Libraries\STM32F10x_StdPeriph_Driver\src\stm32f10x_wwdg.o
WWDG_Enable                                       Libraries\STM32F10x_StdPeriph_Driver\src\stm32f10x_wwdg.o
WWDG_EnableIT                                     Libraries\STM32F10x_StdPeriph_Driver\src\stm32f10x_wwdg.o
WWDG_GetFlagStatus                                Libraries\STM32F10x_StdPeriph_Driver\src\stm32f10x_wwdg.o
WWDG_IRQHandler                                   src\startup_stm32f10x_md.o
WWDG_SetCounter                                   Libraries\STM32F10x_StdPeriph_Driver\src\stm32f10x_wwdg.o
WWDG_SetPrescaler                                 Libraries\STM32F10x_StdPeriph_Driver\src\stm32f10x_wwdg.o
WWDG_SetWindowValue                               Libraries\STM32F10x_StdPeriph_Driver\src\stm32f10x_wwdg.o
WeekDay                                           BSP\RTC\src\ADCT_RTC.o
__adddf3                                          c:/program files (x86)/atollic/truestudio for arm 7.0.0/armtools/bin/../lib/gcc/arm-atollic-eabi/5.3.1/armv7-m\libgcc.a(_arm_addsubdf3.o)
__addsf3                                          c:/program files (x86)/atollic/truestudio for arm 7.0.0/armtools/bin/../lib/gcc/arm-atollic-eabi/5.3.1/armv7-m\libgcc.a(_arm_addsubsf3.o)
__aeabi_d2f                                       c:/program files (x86)/atollic/truestudio for arm 7.0.0/armtools/bin/../lib/gcc/arm-atollic-eabi/5.3.1/armv7-m\libgcc.a(_arm_truncdfsf2.o)
                                                  BSP\PhSensor\src\ADCT_PhSensor.o
                                                  BSP\PZEM004T\src\PZEM004T.o
__aeabi_d2uiz                                     c:/program files (x86)/atollic/truestudio for arm 7.0.0/armtools/bin/../lib/gcc/arm-atollic-eabi/5.3.1/armv7-m\libgcc.a(_arm_fixunsdfsi.o)
                                                  Apps\src\ADCT_BGS_Modbus.o
__aeabi_dadd                                      c:/program files (x86)/atollic/truestudio for arm 7.0.0/armtools/bin/../lib/gcc/arm-atollic-eabi/5.3.1/armv7-m\libgcc.a(_arm_addsubdf3.o)
                                                  BSP\PhSensor\src\ADCT_PhSensor.o
                                                  BSP\PZEM004T\src\PZEM004T.o
__aeabi_ddiv                                      c:/program files (x86)/atollic/truestudio for arm 7.0.0/armtools/bin/../lib/gcc/arm-atollic-eabi/5.3.1/armv7-m\libgcc.a(_arm_muldivdf3.o)
                                                  BSP\PZEM004T\src\PZEM004T.o
__aeabi_dmul                                      c:/program files (x86)/atollic/truestudio for arm 7.0.0/armtools/bin/../lib/gcc/arm-atollic-eabi/5.3.1/armv7-m\libgcc.a(_arm_muldivdf3.o)
                                                  BSP\PhSensor\src\ADCT_PhSensor.o
                                                  Apps\src\ADCT_BGS_Modbus.o
__aeabi_drsub                                     c:/program files (x86)/atollic/truestudio for arm 7.0.0/armtools/bin/../lib/gcc/arm-atollic-eabi/5.3.1/armv7-m\libgcc.a(_arm_addsubdf3.o)
__aeabi_dsub                                      c:/program files (x86)/atollic/truestudio for arm 7.0.0/armtools/bin/../lib/gcc/arm-atollic-eabi/5.3.1/armv7-m\libgcc.a(_arm_addsubdf3.o)
__aeabi_f2d                                       c:/program files (x86)/atollic/truestudio for arm 7.0.0/armtools/bin/../lib/gcc/arm-atollic-eabi/5.3.1/armv7-m\libgcc.a(_arm_addsubdf3.o)
                                                  BSP\PhSensor\src\ADCT_PhSensor.o
__aeabi_f2iz                                      c:/program files (x86)/atollic/truestudio for arm 7.0.0/armtools/bin/../lib/gcc/arm-atollic-eabi/5.3.1/armv7-m\libgcc.a(_arm_fixsfsi.o)
                                                  BSP\PZEM004T\src\PZEM004T.o
__aeabi_f2uiz                                     c:/program files (x86)/atollic/truestudio for arm 7.0.0/armtools/bin/../lib/gcc/arm-atollic-eabi/5.3.1/armv7-m\libgcc.a(_arm_fixunssfsi.o)
                                                  BSP\PZEM004T\src\PZEM004T.o
                                                  Apps\src\ADCT_BGS_Modbus.o
__aeabi_fadd                                      c:/program files (x86)/atollic/truestudio for arm 7.0.0/armtools/bin/../lib/gcc/arm-atollic-eabi/5.3.1/armv7-m\libgcc.a(_arm_addsubsf3.o)
                                                  BSP\PZEM004T\src\PZEM004T.o
__aeabi_fdiv                                      c:/program files (x86)/atollic/truestudio for arm 7.0.0/armtools/bin/../lib/gcc/arm-atollic-eabi/5.3.1/armv7-m\libgcc.a(_arm_muldivsf3.o)
                                                  BSP\PhSensor\src\ADCT_PhSensor.o
                                                  BSP\PZEM004T\src\PZEM004T.o
__aeabi_fmul                                      c:/program files (x86)/atollic/truestudio for arm 7.0.0/armtools/bin/../lib/gcc/arm-atollic-eabi/5.3.1/armv7-m\libgcc.a(_arm_muldivsf3.o)
                                                  BSP\PhSensor\src\ADCT_PhSensor.o
                                                  BSP\PZEM004T\src\PZEM004T.o
__aeabi_frsub                                     c:/program files (x86)/atollic/truestudio for arm 7.0.0/armtools/bin/../lib/gcc/arm-atollic-eabi/5.3.1/armv7-m\libgcc.a(_arm_addsubsf3.o)
__aeabi_fsub                                      c:/program files (x86)/atollic/truestudio for arm 7.0.0/armtools/bin/../lib/gcc/arm-atollic-eabi/5.3.1/armv7-m\libgcc.a(_arm_addsubsf3.o)
                                                  BSP\PZEM004T\src\PZEM004T.o
__aeabi_i2d                                       c:/program files (x86)/atollic/truestudio for arm 7.0.0/armtools/bin/../lib/gcc/arm-atollic-eabi/5.3.1/armv7-m\libgcc.a(_arm_addsubdf3.o)
                                                  BSP\PhSensor\src\ADCT_PhSensor.o
                                                  BSP\PZEM004T\src\PZEM004T.o
__aeabi_i2f                                       c:/program files (x86)/atollic/truestudio for arm 7.0.0/armtools/bin/../lib/gcc/arm-atollic-eabi/5.3.1/armv7-m\libgcc.a(_arm_addsubsf3.o)
                                                  BSP\PZEM004T\src\PZEM004T.o
__aeabi_l2d                                       c:/program files (x86)/atollic/truestudio for arm 7.0.0/armtools/bin/../lib/gcc/arm-atollic-eabi/5.3.1/armv7-m\libgcc.a(_arm_addsubdf3.o)
__aeabi_l2f                                       c:/program files (x86)/atollic/truestudio for arm 7.0.0/armtools/bin/../lib/gcc/arm-atollic-eabi/5.3.1/armv7-m\libgcc.a(_arm_addsubsf3.o)
__aeabi_ui2d                                      c:/program files (x86)/atollic/truestudio for arm 7.0.0/armtools/bin/../lib/gcc/arm-atollic-eabi/5.3.1/armv7-m\libgcc.a(_arm_addsubdf3.o)
__aeabi_ui2f                                      c:/program files (x86)/atollic/truestudio for arm 7.0.0/armtools/bin/../lib/gcc/arm-atollic-eabi/5.3.1/armv7-m\libgcc.a(_arm_addsubsf3.o)
                                                  BSP\PhSensor\src\ADCT_PhSensor.o
                                                  BSP\PZEM004T\src\PZEM004T.o
__aeabi_ul2d                                      c:/program files (x86)/atollic/truestudio for arm 7.0.0/armtools/bin/../lib/gcc/arm-atollic-eabi/5.3.1/armv7-m\libgcc.a(_arm_addsubdf3.o)
__aeabi_ul2f                                      c:/program files (x86)/atollic/truestudio for arm 7.0.0/armtools/bin/../lib/gcc/arm-atollic-eabi/5.3.1/armv7-m\libgcc.a(_arm_addsubsf3.o)
__deregister_frame_info                           c:/program files (x86)/atollic/truestudio for arm 7.0.0/armtools/bin/../lib/gcc/arm-atollic-eabi/5.3.1/armv7-m/crtbegin.o
__divdf3                                          c:/program files (x86)/atollic/truestudio for arm 7.0.0/armtools/bin/../lib/gcc/arm-atollic-eabi/5.3.1/armv7-m\libgcc.a(_arm_muldivdf3.o)
__divsf3                                          c:/program files (x86)/atollic/truestudio for arm 7.0.0/armtools/bin/../lib/gcc/arm-atollic-eabi/5.3.1/armv7-m\libgcc.a(_arm_muldivsf3.o)
__dso_handle                                      c:/program files (x86)/atollic/truestudio for arm 7.0.0/armtools/bin/../lib/gcc/arm-atollic-eabi/5.3.1/armv7-m/crtbegin.o
__extendsfdf2                                     c:/program files (x86)/atollic/truestudio for arm 7.0.0/armtools/bin/../lib/gcc/arm-atollic-eabi/5.3.1/armv7-m\libgcc.a(_arm_addsubdf3.o)
__fixsfsi                                         c:/program files (x86)/atollic/truestudio for arm 7.0.0/armtools/bin/../lib/gcc/arm-atollic-eabi/5.3.1/armv7-m\libgcc.a(_arm_fixsfsi.o)
__fixunsdfsi                                      c:/program files (x86)/atollic/truestudio for arm 7.0.0/armtools/bin/../lib/gcc/arm-atollic-eabi/5.3.1/armv7-m\libgcc.a(_arm_fixunsdfsi.o)
__fixunssfsi                                      c:/program files (x86)/atollic/truestudio for arm 7.0.0/armtools/bin/../lib/gcc/arm-atollic-eabi/5.3.1/armv7-m\libgcc.a(_arm_fixunssfsi.o)
__floatdidf                                       c:/program files (x86)/atollic/truestudio for arm 7.0.0/armtools/bin/../lib/gcc/arm-atollic-eabi/5.3.1/armv7-m\libgcc.a(_arm_addsubdf3.o)
__floatdisf                                       c:/program files (x86)/atollic/truestudio for arm 7.0.0/armtools/bin/../lib/gcc/arm-atollic-eabi/5.3.1/armv7-m\libgcc.a(_arm_addsubsf3.o)
__floatsidf                                       c:/program files (x86)/atollic/truestudio for arm 7.0.0/armtools/bin/../lib/gcc/arm-atollic-eabi/5.3.1/armv7-m\libgcc.a(_arm_addsubdf3.o)
__floatsisf                                       c:/program files (x86)/atollic/truestudio for arm 7.0.0/armtools/bin/../lib/gcc/arm-atollic-eabi/5.3.1/armv7-m\libgcc.a(_arm_addsubsf3.o)
__floatundidf                                     c:/program files (x86)/atollic/truestudio for arm 7.0.0/armtools/bin/../lib/gcc/arm-atollic-eabi/5.3.1/armv7-m\libgcc.a(_arm_addsubdf3.o)
__floatundisf                                     c:/program files (x86)/atollic/truestudio for arm 7.0.0/armtools/bin/../lib/gcc/arm-atollic-eabi/5.3.1/armv7-m\libgcc.a(_arm_addsubsf3.o)
__floatunsidf                                     c:/program files (x86)/atollic/truestudio for arm 7.0.0/armtools/bin/../lib/gcc/arm-atollic-eabi/5.3.1/armv7-m\libgcc.a(_arm_addsubdf3.o)
__floatunsisf                                     c:/program files (x86)/atollic/truestudio for arm 7.0.0/armtools/bin/../lib/gcc/arm-atollic-eabi/5.3.1/armv7-m\libgcc.a(_arm_addsubsf3.o)
__fp_lock_all                                     c:/program files (x86)/atollic/truestudio for arm 7.0.0/armtools/bin/../lib/gcc/arm-atollic-eabi/5.3.1/../../../../arm-atollic-eabi/lib/armv7-m\libc_nano.a(lib_a-findfp.o)
__fp_unlock_all                                   c:/program files (x86)/atollic/truestudio for arm 7.0.0/armtools/bin/../lib/gcc/arm-atollic-eabi/5.3.1/../../../../arm-atollic-eabi/lib/armv7-m\libc_nano.a(lib_a-findfp.o)
__init_array_end                                  c:/program files (x86)/atollic/truestudio for arm 7.0.0/armtools/bin/../lib/gcc/arm-atollic-eabi/5.3.1/../../../../arm-atollic-eabi/lib/armv7-m\libc_nano.a(lib_a-init.o)
__init_array_start                                c:/program files (x86)/atollic/truestudio for arm 7.0.0/armtools/bin/../lib/gcc/arm-atollic-eabi/5.3.1/../../../../arm-atollic-eabi/lib/armv7-m\libc_nano.a(lib_a-init.o)
__libc_init_array                                 c:/program files (x86)/atollic/truestudio for arm 7.0.0/armtools/bin/../lib/gcc/arm-atollic-eabi/5.3.1/../../../../arm-atollic-eabi/lib/armv7-m\libc_nano.a(lib_a-init.o)
                                                  src\startup_stm32f10x_md.o
__malloc_free_list                                c:/program files (x86)/atollic/truestudio for arm 7.0.0/armtools/bin/../lib/gcc/arm-atollic-eabi/5.3.1/../../../../arm-atollic-eabi/lib/armv7-m\libc_nano.a(lib_a-nano-mallocr.o)
                                                  c:/program files (x86)/atollic/truestudio for arm 7.0.0/armtools/bin/../lib/gcc/arm-atollic-eabi/5.3.1/../../../../arm-atollic-eabi/lib/armv7-m\libc_nano.a(lib_a-nano-freer.o)
__malloc_lock                                     c:/program files (x86)/atollic/truestudio for arm 7.0.0/armtools/bin/../lib/gcc/arm-atollic-eabi/5.3.1/../../../../arm-atollic-eabi/lib/armv7-m\libc_nano.a(lib_a-mlock.o)
                                                  c:/program files (x86)/atollic/truestudio for arm 7.0.0/armtools/bin/../lib/gcc/arm-atollic-eabi/5.3.1/../../../../arm-atollic-eabi/lib/armv7-m\libc_nano.a(lib_a-nano-mallocr.o)
                                                  c:/program files (x86)/atollic/truestudio for arm 7.0.0/armtools/bin/../lib/gcc/arm-atollic-eabi/5.3.1/../../../../arm-atollic-eabi/lib/armv7-m\libc_nano.a(lib_a-nano-freer.o)
__malloc_sbrk_start                               c:/program files (x86)/atollic/truestudio for arm 7.0.0/armtools/bin/../lib/gcc/arm-atollic-eabi/5.3.1/../../../../arm-atollic-eabi/lib/armv7-m\libc_nano.a(lib_a-nano-mallocr.o)
__malloc_unlock                                   c:/program files (x86)/atollic/truestudio for arm 7.0.0/armtools/bin/../lib/gcc/arm-atollic-eabi/5.3.1/../../../../arm-atollic-eabi/lib/armv7-m\libc_nano.a(lib_a-mlock.o)
                                                  c:/program files (x86)/atollic/truestudio for arm 7.0.0/armtools/bin/../lib/gcc/arm-atollic-eabi/5.3.1/../../../../arm-atollic-eabi/lib/armv7-m\libc_nano.a(lib_a-nano-mallocr.o)
                                                  c:/program files (x86)/atollic/truestudio for arm 7.0.0/armtools/bin/../lib/gcc/arm-atollic-eabi/5.3.1/../../../../arm-atollic-eabi/lib/armv7-m\libc_nano.a(lib_a-nano-freer.o)
__muldf3                                          c:/program files (x86)/atollic/truestudio for arm 7.0.0/armtools/bin/../lib/gcc/arm-atollic-eabi/5.3.1/armv7-m\libgcc.a(_arm_muldivdf3.o)
__mulsf3                                          c:/program files (x86)/atollic/truestudio for arm 7.0.0/armtools/bin/../lib/gcc/arm-atollic-eabi/5.3.1/armv7-m\libgcc.a(_arm_muldivsf3.o)
__preinit_array_end                               c:/program files (x86)/atollic/truestudio for arm 7.0.0/armtools/bin/../lib/gcc/arm-atollic-eabi/5.3.1/../../../../arm-atollic-eabi/lib/armv7-m\libc_nano.a(lib_a-init.o)
__preinit_array_start                             c:/program files (x86)/atollic/truestudio for arm 7.0.0/armtools/bin/../lib/gcc/arm-atollic-eabi/5.3.1/../../../../arm-atollic-eabi/lib/armv7-m\libc_nano.a(lib_a-init.o)
__register_frame_info                             c:/program files (x86)/atollic/truestudio for arm 7.0.0/armtools/bin/../lib/gcc/arm-atollic-eabi/5.3.1/armv7-m/crtbegin.o
__sclose                                          c:/program files (x86)/atollic/truestudio for arm 7.0.0/armtools/bin/../lib/gcc/arm-atollic-eabi/5.3.1/../../../../arm-atollic-eabi/lib/armv7-m\libc_nano.a(lib_a-stdio.o)
                                                  c:/program files (x86)/atollic/truestudio for arm 7.0.0/armtools/bin/../lib/gcc/arm-atollic-eabi/5.3.1/../../../../arm-atollic-eabi/lib/armv7-m\libc_nano.a(lib_a-findfp.o)
__seofread                                        c:/program files (x86)/atollic/truestudio for arm 7.0.0/armtools/bin/../lib/gcc/arm-atollic-eabi/5.3.1/../../../../arm-atollic-eabi/lib/armv7-m\libc_nano.a(lib_a-stdio.o)
__sf_fake_stderr                                  c:/program files (x86)/atollic/truestudio for arm 7.0.0/armtools/bin/../lib/gcc/arm-atollic-eabi/5.3.1/../../../../arm-atollic-eabi/lib/armv7-m\libc_nano.a(lib_a-findfp.o)
                                                  c:/program files (x86)/atollic/truestudio for arm 7.0.0/armtools/bin/../lib/gcc/arm-atollic-eabi/5.3.1/../../../../arm-atollic-eabi/lib/armv7-m\libc_nano.a(lib_a-fflush.o)
                                                  c:/program files (x86)/atollic/truestudio for arm 7.0.0/armtools/bin/../lib/gcc/arm-atollic-eabi/5.3.1/../../../../arm-atollic-eabi/lib/armv7-m\libc_nano.a(lib_a-wsetup.o)
                                                  c:/program files (x86)/atollic/truestudio for arm 7.0.0/armtools/bin/../lib/gcc/arm-atollic-eabi/5.3.1/../../../../arm-atollic-eabi/lib/armv7-m\libc_nano.a(lib_a-wbuf.o)
                                                  c:/program files (x86)/atollic/truestudio for arm 7.0.0/armtools/bin/../lib/gcc/arm-atollic-eabi/5.3.1/../../../../arm-atollic-eabi/lib/armv7-m\libc_nano.a(lib_a-nano-vfprintf.o)
                                                  c:/program files (x86)/atollic/truestudio for arm 7.0.0/armtools/bin/../lib/gcc/arm-atollic-eabi/5.3.1/../../../../arm-atollic-eabi/lib/armv7-m\libc_nano.a(lib_a-impure.o)
__sf_fake_stdin                                   c:/program files (x86)/atollic/truestudio for arm 7.0.0/armtools/bin/../lib/gcc/arm-atollic-eabi/5.3.1/../../../../arm-atollic-eabi/lib/armv7-m\libc_nano.a(lib_a-findfp.o)
                                                  c:/program files (x86)/atollic/truestudio for arm 7.0.0/armtools/bin/../lib/gcc/arm-atollic-eabi/5.3.1/../../../../arm-atollic-eabi/lib/armv7-m\libc_nano.a(lib_a-fflush.o)
                                                  c:/program files (x86)/atollic/truestudio for arm 7.0.0/armtools/bin/../lib/gcc/arm-atollic-eabi/5.3.1/../../../../arm-atollic-eabi/lib/armv7-m\libc_nano.a(lib_a-wsetup.o)
                                                  c:/program files (x86)/atollic/truestudio for arm 7.0.0/armtools/bin/../lib/gcc/arm-atollic-eabi/5.3.1/../../../../arm-atollic-eabi/lib/armv7-m\libc_nano.a(lib_a-wbuf.o)
                                                  c:/program files (x86)/atollic/truestudio for arm 7.0.0/armtools/bin/../lib/gcc/arm-atollic-eabi/5.3.1/../../../../arm-atollic-eabi/lib/armv7-m\libc_nano.a(lib_a-nano-vfprintf.o)
                                                  c:/program files (x86)/atollic/truestudio for arm 7.0.0/armtools/bin/../lib/gcc/arm-atollic-eabi/5.3.1/../../../../arm-atollic-eabi/lib/armv7-m\libc_nano.a(lib_a-impure.o)
__sf_fake_stdout                                  c:/program files (x86)/atollic/truestudio for arm 7.0.0/armtools/bin/../lib/gcc/arm-atollic-eabi/5.3.1/../../../../arm-atollic-eabi/lib/armv7-m\libc_nano.a(lib_a-findfp.o)
                                                  c:/program files (x86)/atollic/truestudio for arm 7.0.0/armtools/bin/../lib/gcc/arm-atollic-eabi/5.3.1/../../../../arm-atollic-eabi/lib/armv7-m\libc_nano.a(lib_a-fflush.o)
                                                  c:/program files (x86)/atollic/truestudio for arm 7.0.0/armtools/bin/../lib/gcc/arm-atollic-eabi/5.3.1/../../../../arm-atollic-eabi/lib/armv7-m\libc_nano.a(lib_a-wsetup.o)
                                                  c:/program files (x86)/atollic/truestudio for arm 7.0.0/armtools/bin/../lib/gcc/arm-atollic-eabi/5.3.1/../../../../arm-atollic-eabi/lib/armv7-m\libc_nano.a(lib_a-wbuf.o)
                                                  c:/program files (x86)/atollic/truestudio for arm 7.0.0/armtools/bin/../lib/gcc/arm-atollic-eabi/5.3.1/../../../../arm-atollic-eabi/lib/armv7-m\libc_nano.a(lib_a-nano-vfprintf.o)
                                                  c:/program files (x86)/atollic/truestudio for arm 7.0.0/armtools/bin/../lib/gcc/arm-atollic-eabi/5.3.1/../../../../arm-atollic-eabi/lib/armv7-m\libc_nano.a(lib_a-impure.o)
__sflush_r                                        c:/program files (x86)/atollic/truestudio for arm 7.0.0/armtools/bin/../lib/gcc/arm-atollic-eabi/5.3.1/../../../../arm-atollic-eabi/lib/armv7-m\libc_nano.a(lib_a-fflush.o)
__sfmoreglue                                      c:/program files (x86)/atollic/truestudio for arm 7.0.0/armtools/bin/../lib/gcc/arm-atollic-eabi/5.3.1/../../../../arm-atollic-eabi/lib/armv7-m\libc_nano.a(lib_a-findfp.o)
__sfp                                             c:/program files (x86)/atollic/truestudio for arm 7.0.0/armtools/bin/../lib/gcc/arm-atollic-eabi/5.3.1/../../../../arm-atollic-eabi/lib/armv7-m\libc_nano.a(lib_a-findfp.o)
__sfp_lock_acquire                                c:/program files (x86)/atollic/truestudio for arm 7.0.0/armtools/bin/../lib/gcc/arm-atollic-eabi/5.3.1/../../../../arm-atollic-eabi/lib/armv7-m\libc_nano.a(lib_a-findfp.o)
__sfp_lock_release                                c:/program files (x86)/atollic/truestudio for arm 7.0.0/armtools/bin/../lib/gcc/arm-atollic-eabi/5.3.1/../../../../arm-atollic-eabi/lib/armv7-m\libc_nano.a(lib_a-findfp.o)
__sfputs_r                                        c:/program files (x86)/atollic/truestudio for arm 7.0.0/armtools/bin/../lib/gcc/arm-atollic-eabi/5.3.1/../../../../arm-atollic-eabi/lib/armv7-m\libc_nano.a(lib_a-nano-vfprintf.o)
__sfvwrite_r                                      c:/program files (x86)/atollic/truestudio for arm 7.0.0/armtools/bin/../lib/gcc/arm-atollic-eabi/5.3.1/../../../../arm-atollic-eabi/lib/armv7-m\libc_nano.a(lib_a-fvwrite.o)
                                                  c:/program files (x86)/atollic/truestudio for arm 7.0.0/armtools/bin/../lib/gcc/arm-atollic-eabi/5.3.1/../../../../arm-atollic-eabi/lib/armv7-m\libc_nano.a(lib_a-nano-vfprintf.o)
__sinit                                           c:/program files (x86)/atollic/truestudio for arm 7.0.0/armtools/bin/../lib/gcc/arm-atollic-eabi/5.3.1/../../../../arm-atollic-eabi/lib/armv7-m\libc_nano.a(lib_a-findfp.o)
                                                  c:/program files (x86)/atollic/truestudio for arm 7.0.0/armtools/bin/../lib/gcc/arm-atollic-eabi/5.3.1/../../../../arm-atollic-eabi/lib/armv7-m\libc_nano.a(lib_a-fflush.o)
                                                  c:/program files (x86)/atollic/truestudio for arm 7.0.0/armtools/bin/../lib/gcc/arm-atollic-eabi/5.3.1/../../../../arm-atollic-eabi/lib/armv7-m\libc_nano.a(lib_a-wsetup.o)
                                                  c:/program files (x86)/atollic/truestudio for arm 7.0.0/armtools/bin/../lib/gcc/arm-atollic-eabi/5.3.1/../../../../arm-atollic-eabi/lib/armv7-m\libc_nano.a(lib_a-wbuf.o)
                                                  c:/program files (x86)/atollic/truestudio for arm 7.0.0/armtools/bin/../lib/gcc/arm-atollic-eabi/5.3.1/../../../../arm-atollic-eabi/lib/armv7-m\libc_nano.a(lib_a-nano-vfprintf.o)
                                                  c:/program files (x86)/atollic/truestudio for arm 7.0.0/armtools/bin/../lib/gcc/arm-atollic-eabi/5.3.1/../../../../arm-atollic-eabi/lib/armv7-m\libc_nano.a(lib_a-printf.o)
__sinit_lock_acquire                              c:/program files (x86)/atollic/truestudio for arm 7.0.0/armtools/bin/../lib/gcc/arm-atollic-eabi/5.3.1/../../../../arm-atollic-eabi/lib/armv7-m\libc_nano.a(lib_a-findfp.o)
__sinit_lock_release                              c:/program files (x86)/atollic/truestudio for arm 7.0.0/armtools/bin/../lib/gcc/arm-atollic-eabi/5.3.1/../../../../arm-atollic-eabi/lib/armv7-m\libc_nano.a(lib_a-findfp.o)
__smakebuf_r                                      c:/program files (x86)/atollic/truestudio for arm 7.0.0/armtools/bin/../lib/gcc/arm-atollic-eabi/5.3.1/../../../../arm-atollic-eabi/lib/armv7-m\libc_nano.a(lib_a-makebuf.o)
                                                  c:/program files (x86)/atollic/truestudio for arm 7.0.0/armtools/bin/../lib/gcc/arm-atollic-eabi/5.3.1/../../../../arm-atollic-eabi/lib/armv7-m\libc_nano.a(lib_a-wsetup.o)
__sprint_r                                        c:/program files (x86)/atollic/truestudio for arm 7.0.0/armtools/bin/../lib/gcc/arm-atollic-eabi/5.3.1/../../../../arm-atollic-eabi/lib/armv7-m\libc_nano.a(lib_a-nano-vfprintf.o)
__sread                                           c:/program files (x86)/atollic/truestudio for arm 7.0.0/armtools/bin/../lib/gcc/arm-atollic-eabi/5.3.1/../../../../arm-atollic-eabi/lib/armv7-m\libc_nano.a(lib_a-stdio.o)
                                                  c:/program files (x86)/atollic/truestudio for arm 7.0.0/armtools/bin/../lib/gcc/arm-atollic-eabi/5.3.1/../../../../arm-atollic-eabi/lib/armv7-m\libc_nano.a(lib_a-findfp.o)
__sseek                                           c:/program files (x86)/atollic/truestudio for arm 7.0.0/armtools/bin/../lib/gcc/arm-atollic-eabi/5.3.1/../../../../arm-atollic-eabi/lib/armv7-m\libc_nano.a(lib_a-stdio.o)
                                                  c:/program files (x86)/atollic/truestudio for arm 7.0.0/armtools/bin/../lib/gcc/arm-atollic-eabi/5.3.1/../../../../arm-atollic-eabi/lib/armv7-m\libc_nano.a(lib_a-findfp.o)
__subdf3                                          c:/program files (x86)/atollic/truestudio for arm 7.0.0/armtools/bin/../lib/gcc/arm-atollic-eabi/5.3.1/armv7-m\libgcc.a(_arm_addsubdf3.o)
__subsf3                                          c:/program files (x86)/atollic/truestudio for arm 7.0.0/armtools/bin/../lib/gcc/arm-atollic-eabi/5.3.1/armv7-m\libgcc.a(_arm_addsubsf3.o)
__swbuf                                           c:/program files (x86)/atollic/truestudio for arm 7.0.0/armtools/bin/../lib/gcc/arm-atollic-eabi/5.3.1/../../../../arm-atollic-eabi/lib/armv7-m\libc_nano.a(lib_a-wbuf.o)
__swbuf_r                                         c:/program files (x86)/atollic/truestudio for arm 7.0.0/armtools/bin/../lib/gcc/arm-atollic-eabi/5.3.1/../../../../arm-atollic-eabi/lib/armv7-m\libc_nano.a(lib_a-wbuf.o)
                                                  c:/program files (x86)/atollic/truestudio for arm 7.0.0/armtools/bin/../lib/gcc/arm-atollic-eabi/5.3.1/../../../../arm-atollic-eabi/lib/armv7-m\libc_nano.a(lib_a-nano-vfprintf.o)
__swhatbuf_r                                      c:/program files (x86)/atollic/truestudio for arm 7.0.0/armtools/bin/../lib/gcc/arm-atollic-eabi/5.3.1/../../../../arm-atollic-eabi/lib/armv7-m\libc_nano.a(lib_a-makebuf.o)
__swrite                                          c:/program files (x86)/atollic/truestudio for arm 7.0.0/armtools/bin/../lib/gcc/arm-atollic-eabi/5.3.1/../../../../arm-atollic-eabi/lib/armv7-m\libc_nano.a(lib_a-stdio.o)
                                                  c:/program files (x86)/atollic/truestudio for arm 7.0.0/armtools/bin/../lib/gcc/arm-atollic-eabi/5.3.1/../../../../arm-atollic-eabi/lib/armv7-m\libc_nano.a(lib_a-findfp.o)
__swsetup_r                                       c:/program files (x86)/atollic/truestudio for arm 7.0.0/armtools/bin/../lib/gcc/arm-atollic-eabi/5.3.1/../../../../arm-atollic-eabi/lib/armv7-m\libc_nano.a(lib_a-wsetup.o)
                                                  c:/program files (x86)/atollic/truestudio for arm 7.0.0/armtools/bin/../lib/gcc/arm-atollic-eabi/5.3.1/../../../../arm-atollic-eabi/lib/armv7-m\libc_nano.a(lib_a-fvwrite.o)
                                                  c:/program files (x86)/atollic/truestudio for arm 7.0.0/armtools/bin/../lib/gcc/arm-atollic-eabi/5.3.1/../../../../arm-atollic-eabi/lib/armv7-m\libc_nano.a(lib_a-wbuf.o)
                                                  c:/program files (x86)/atollic/truestudio for arm 7.0.0/armtools/bin/../lib/gcc/arm-atollic-eabi/5.3.1/../../../../arm-atollic-eabi/lib/armv7-m\libc_nano.a(lib_a-nano-vfprintf.o)
__truncdfsf2                                      c:/program files (x86)/atollic/truestudio for arm 7.0.0/armtools/bin/../lib/gcc/arm-atollic-eabi/5.3.1/armv7-m\libgcc.a(_arm_truncdfsf2.o)
_address                                          src\main.o
                                                  BSP\PZEM004T\src\PZEM004T.o
                                                  Apps\src\ADCT_BGS_State.o
                                                  Apps\src\ADCT_BGS_Modbus.o
_cleanup                                          c:/program files (x86)/atollic/truestudio for arm 7.0.0/armtools/bin/../lib/gcc/arm-atollic-eabi/5.3.1/../../../../arm-atollic-eabi/lib/armv7-m\libc_nano.a(lib_a-findfp.o)
_cleanup_r                                        c:/program files (x86)/atollic/truestudio for arm 7.0.0/armtools/bin/../lib/gcc/arm-atollic-eabi/5.3.1/../../../../arm-atollic-eabi/lib/armv7-m\libc_nano.a(lib_a-findfp.o)
                                                  c:/program files (x86)/atollic/truestudio for arm 7.0.0/armtools/bin/../lib/gcc/arm-atollic-eabi/5.3.1/../../../../arm-atollic-eabi/lib/armv7-m\libc_nano.a(lib_a-makebuf.o)
_close                                            c:/program files (x86)/atollic/truestudio for arm 7.0.0/armtools/bin/../lib/gcc/arm-atollic-eabi/5.3.1/../../../../arm-atollic-eabi/lib/armv7-m\libnosys.a(close.o)
                                                  c:/program files (x86)/atollic/truestudio for arm 7.0.0/armtools/bin/../lib/gcc/arm-atollic-eabi/5.3.1/../../../../arm-atollic-eabi/lib/armv7-m\libc_nano.a(lib_a-closer.o)
_close_r                                          c:/program files (x86)/atollic/truestudio for arm 7.0.0/armtools/bin/../lib/gcc/arm-atollic-eabi/5.3.1/../../../../arm-atollic-eabi/lib/armv7-m\libc_nano.a(lib_a-closer.o)
                                                  c:/program files (x86)/atollic/truestudio for arm 7.0.0/armtools/bin/../lib/gcc/arm-atollic-eabi/5.3.1/../../../../arm-atollic-eabi/lib/armv7-m\libc_nano.a(lib_a-stdio.o)
_ebss                                             src\startup_stm32f10x_md.o
_edata                                            src\startup_stm32f10x_md.o
_estack                                           src\startup_stm32f10x_md.o
_fflush_r                                         c:/program files (x86)/atollic/truestudio for arm 7.0.0/armtools/bin/../lib/gcc/arm-atollic-eabi/5.3.1/../../../../arm-atollic-eabi/lib/armv7-m\libc_nano.a(lib_a-fflush.o)
                                                  c:/program files (x86)/atollic/truestudio for arm 7.0.0/armtools/bin/../lib/gcc/arm-atollic-eabi/5.3.1/../../../../arm-atollic-eabi/lib/armv7-m\libc_nano.a(lib_a-fvwrite.o)
                                                  c:/program files (x86)/atollic/truestudio for arm 7.0.0/armtools/bin/../lib/gcc/arm-atollic-eabi/5.3.1/../../../../arm-atollic-eabi/lib/armv7-m\libc_nano.a(lib_a-wbuf.o)
                                                  c:/program files (x86)/atollic/truestudio for arm 7.0.0/armtools/bin/../lib/gcc/arm-atollic-eabi/5.3.1/../../../../arm-atollic-eabi/lib/armv7-m\libc_nano.a(lib_a-findfp.o)
_fini                                             c:/program files (x86)/atollic/truestudio for arm 7.0.0/armtools/bin/../lib/gcc/arm-atollic-eabi/5.3.1/armv7-m/crti.o
_free_r                                           c:/program files (x86)/atollic/truestudio for arm 7.0.0/armtools/bin/../lib/gcc/arm-atollic-eabi/5.3.1/../../../../arm-atollic-eabi/lib/armv7-m\libc_nano.a(lib_a-nano-freer.o)
                                                  c:/program files (x86)/atollic/truestudio for arm 7.0.0/armtools/bin/../lib/gcc/arm-atollic-eabi/5.3.1/../../../../arm-atollic-eabi/lib/armv7-m\libc_nano.a(lib_a-nano-reallocr.o)
                                                  c:/program files (x86)/atollic/truestudio for arm 7.0.0/armtools/bin/../lib/gcc/arm-atollic-eabi/5.3.1/../../../../arm-atollic-eabi/lib/armv7-m\libc_nano.a(lib_a-fvwrite.o)
                                                  c:/program files (x86)/atollic/truestudio for arm 7.0.0/armtools/bin/../lib/gcc/arm-atollic-eabi/5.3.1/../../../../arm-atollic-eabi/lib/armv7-m\libc_nano.a(lib_a-fflush.o)
                                                  c:/program files (x86)/atollic/truestudio for arm 7.0.0/armtools/bin/../lib/gcc/arm-atollic-eabi/5.3.1/../../../../arm-atollic-eabi/lib/armv7-m\libc_nano.a(lib_a-wsetup.o)
                                                  c:/program files (x86)/atollic/truestudio for arm 7.0.0/armtools/bin/../lib/gcc/arm-atollic-eabi/5.3.1/../../../../arm-atollic-eabi/lib/armv7-m\libc_nano.a(lib_a-reent.o)
                                                  c:/program files (x86)/atollic/truestudio for arm 7.0.0/armtools/bin/../lib/gcc/arm-atollic-eabi/5.3.1/../../../../arm-atollic-eabi/lib/armv7-m\libc_nano.a(lib_a-malloc.o)
_fstat                                            c:/program files (x86)/atollic/truestudio for arm 7.0.0/armtools/bin/../lib/gcc/arm-atollic-eabi/5.3.1/../../../../arm-atollic-eabi/lib/armv7-m\libnosys.a(fstat.o)
                                                  c:/program files (x86)/atollic/truestudio for arm 7.0.0/armtools/bin/../lib/gcc/arm-atollic-eabi/5.3.1/../../../../arm-atollic-eabi/lib/armv7-m\libc_nano.a(lib_a-fstatr.o)
_fstat_r                                          c:/program files (x86)/atollic/truestudio for arm 7.0.0/armtools/bin/../lib/gcc/arm-atollic-eabi/5.3.1/../../../../arm-atollic-eabi/lib/armv7-m\libc_nano.a(lib_a-fstatr.o)
                                                  c:/program files (x86)/atollic/truestudio for arm 7.0.0/armtools/bin/../lib/gcc/arm-atollic-eabi/5.3.1/../../../../arm-atollic-eabi/lib/armv7-m\libc_nano.a(lib_a-makebuf.o)
_fwalk                                            c:/program files (x86)/atollic/truestudio for arm 7.0.0/armtools/bin/../lib/gcc/arm-atollic-eabi/5.3.1/../../../../arm-atollic-eabi/lib/armv7-m\libc_nano.a(lib_a-fwalk.o)
                                                  c:/program files (x86)/atollic/truestudio for arm 7.0.0/armtools/bin/../lib/gcc/arm-atollic-eabi/5.3.1/../../../../arm-atollic-eabi/lib/armv7-m\libc_nano.a(lib_a-findfp.o)
_fwalk_reent                                      c:/program files (x86)/atollic/truestudio for arm 7.0.0/armtools/bin/../lib/gcc/arm-atollic-eabi/5.3.1/../../../../arm-atollic-eabi/lib/armv7-m\libc_nano.a(lib_a-fwalk.o)
                                                  c:/program files (x86)/atollic/truestudio for arm 7.0.0/armtools/bin/../lib/gcc/arm-atollic-eabi/5.3.1/../../../../arm-atollic-eabi/lib/armv7-m\libc_nano.a(lib_a-fflush.o)
                                                  c:/program files (x86)/atollic/truestudio for arm 7.0.0/armtools/bin/../lib/gcc/arm-atollic-eabi/5.3.1/../../../../arm-atollic-eabi/lib/armv7-m\libc_nano.a(lib_a-findfp.o)
_global_impure_ptr                                c:/program files (x86)/atollic/truestudio for arm 7.0.0/armtools/bin/../lib/gcc/arm-atollic-eabi/5.3.1/../../../../arm-atollic-eabi/lib/armv7-m\libc_nano.a(lib_a-impure.o)
                                                  c:/program files (x86)/atollic/truestudio for arm 7.0.0/armtools/bin/../lib/gcc/arm-atollic-eabi/5.3.1/../../../../arm-atollic-eabi/lib/armv7-m\libc_nano.a(lib_a-fflush.o)
                                                  c:/program files (x86)/atollic/truestudio for arm 7.0.0/armtools/bin/../lib/gcc/arm-atollic-eabi/5.3.1/../../../../arm-atollic-eabi/lib/armv7-m\libc_nano.a(lib_a-findfp.o)
_impure_ptr                                       c:/program files (x86)/atollic/truestudio for arm 7.0.0/armtools/bin/../lib/gcc/arm-atollic-eabi/5.3.1/../../../../arm-atollic-eabi/lib/armv7-m\libc_nano.a(lib_a-impure.o)
                                                  c:/program files (x86)/atollic/truestudio for arm 7.0.0/armtools/bin/../lib/gcc/arm-atollic-eabi/5.3.1/../../../../arm-atollic-eabi/lib/armv7-m\libc_nano.a(lib_a-fflush.o)
                                                  c:/program files (x86)/atollic/truestudio for arm 7.0.0/armtools/bin/../lib/gcc/arm-atollic-eabi/5.3.1/../../../../arm-atollic-eabi/lib/armv7-m\libc_nano.a(lib_a-wsetup.o)
                                                  c:/program files (x86)/atollic/truestudio for arm 7.0.0/armtools/bin/../lib/gcc/arm-atollic-eabi/5.3.1/../../../../arm-atollic-eabi/lib/armv7-m\libc_nano.a(lib_a-wbuf.o)
                                                  c:/program files (x86)/atollic/truestudio for arm 7.0.0/armtools/bin/../lib/gcc/arm-atollic-eabi/5.3.1/../../../../arm-atollic-eabi/lib/armv7-m\libc_nano.a(lib_a-reent.o)
                                                  c:/program files (x86)/atollic/truestudio for arm 7.0.0/armtools/bin/../lib/gcc/arm-atollic-eabi/5.3.1/../../../../arm-atollic-eabi/lib/armv7-m\libc_nano.a(lib_a-nano-vfprintf.o)
                                                  c:/program files (x86)/atollic/truestudio for arm 7.0.0/armtools/bin/../lib/gcc/arm-atollic-eabi/5.3.1/../../../../arm-atollic-eabi/lib/armv7-m\libc_nano.a(lib_a-findfp.o)
                                                  c:/program files (x86)/atollic/truestudio for arm 7.0.0/armtools/bin/../lib/gcc/arm-atollic-eabi/5.3.1/../../../../arm-atollic-eabi/lib/armv7-m\libc_nano.a(lib_a-printf.o)
                                                  c:/program files (x86)/atollic/truestudio for arm 7.0.0/armtools/bin/../lib/gcc/arm-atollic-eabi/5.3.1/../../../../arm-atollic-eabi/lib/armv7-m\libc_nano.a(lib_a-malloc.o)
_init                                             c:/program files (x86)/atollic/truestudio for arm 7.0.0/armtools/bin/../lib/gcc/arm-atollic-eabi/5.3.1/armv7-m/crti.o
                                                  c:/program files (x86)/atollic/truestudio for arm 7.0.0/armtools/bin/../lib/gcc/arm-atollic-eabi/5.3.1/../../../../arm-atollic-eabi/lib/armv7-m\libc_nano.a(lib_a-init.o)
_iprintf_r                                        c:/program files (x86)/atollic/truestudio for arm 7.0.0/armtools/bin/../lib/gcc/arm-atollic-eabi/5.3.1/../../../../arm-atollic-eabi/lib/armv7-m\libc_nano.a(lib_a-printf.o)
_isatty                                           c:/program files (x86)/atollic/truestudio for arm 7.0.0/armtools/bin/../lib/gcc/arm-atollic-eabi/5.3.1/../../../../arm-atollic-eabi/lib/armv7-m\libnosys.a(isatty.o)
                                                  c:/program files (x86)/atollic/truestudio for arm 7.0.0/armtools/bin/../lib/gcc/arm-atollic-eabi/5.3.1/../../../../arm-atollic-eabi/lib/armv7-m\libc_nano.a(lib_a-isattyr.o)
_isatty_r                                         c:/program files (x86)/atollic/truestudio for arm 7.0.0/armtools/bin/../lib/gcc/arm-atollic-eabi/5.3.1/../../../../arm-atollic-eabi/lib/armv7-m\libc_nano.a(lib_a-isattyr.o)
                                                  c:/program files (x86)/atollic/truestudio for arm 7.0.0/armtools/bin/../lib/gcc/arm-atollic-eabi/5.3.1/../../../../arm-atollic-eabi/lib/armv7-m\libc_nano.a(lib_a-makebuf.o)
_lseek                                            c:/program files (x86)/atollic/truestudio for arm 7.0.0/armtools/bin/../lib/gcc/arm-atollic-eabi/5.3.1/../../../../arm-atollic-eabi/lib/armv7-m\libnosys.a(lseek.o)
                                                  c:/program files (x86)/atollic/truestudio for arm 7.0.0/armtools/bin/../lib/gcc/arm-atollic-eabi/5.3.1/../../../../arm-atollic-eabi/lib/armv7-m\libc_nano.a(lib_a-lseekr.o)
_lseek_r                                          c:/program files (x86)/atollic/truestudio for arm 7.0.0/armtools/bin/../lib/gcc/arm-atollic-eabi/5.3.1/../../../../arm-atollic-eabi/lib/armv7-m\libc_nano.a(lib_a-lseekr.o)
                                                  c:/program files (x86)/atollic/truestudio for arm 7.0.0/armtools/bin/../lib/gcc/arm-atollic-eabi/5.3.1/../../../../arm-atollic-eabi/lib/armv7-m\libc_nano.a(lib_a-stdio.o)
_malloc_r                                         c:/program files (x86)/atollic/truestudio for arm 7.0.0/armtools/bin/../lib/gcc/arm-atollic-eabi/5.3.1/../../../../arm-atollic-eabi/lib/armv7-m\libc_nano.a(lib_a-nano-mallocr.o)
                                                  c:/program files (x86)/atollic/truestudio for arm 7.0.0/armtools/bin/../lib/gcc/arm-atollic-eabi/5.3.1/../../../../arm-atollic-eabi/lib/armv7-m\libc_nano.a(lib_a-nano-reallocr.o)
                                                  c:/program files (x86)/atollic/truestudio for arm 7.0.0/armtools/bin/../lib/gcc/arm-atollic-eabi/5.3.1/../../../../arm-atollic-eabi/lib/armv7-m\libc_nano.a(lib_a-makebuf.o)
                                                  c:/program files (x86)/atollic/truestudio for arm 7.0.0/armtools/bin/../lib/gcc/arm-atollic-eabi/5.3.1/../../../../arm-atollic-eabi/lib/armv7-m\libc_nano.a(lib_a-fvwrite.o)
                                                  c:/program files (x86)/atollic/truestudio for arm 7.0.0/armtools/bin/../lib/gcc/arm-atollic-eabi/5.3.1/../../../../arm-atollic-eabi/lib/armv7-m\libc_nano.a(lib_a-findfp.o)
                                                  c:/program files (x86)/atollic/truestudio for arm 7.0.0/armtools/bin/../lib/gcc/arm-atollic-eabi/5.3.1/../../../../arm-atollic-eabi/lib/armv7-m\libc_nano.a(lib_a-malloc.o)
_malloc_usable_size_r                             c:/program files (x86)/atollic/truestudio for arm 7.0.0/armtools/bin/../lib/gcc/arm-atollic-eabi/5.3.1/../../../../arm-atollic-eabi/lib/armv7-m\libc_nano.a(lib_a-nano-msizer.o)
                                                  c:/program files (x86)/atollic/truestudio for arm 7.0.0/armtools/bin/../lib/gcc/arm-atollic-eabi/5.3.1/../../../../arm-atollic-eabi/lib/armv7-m\libc_nano.a(lib_a-nano-reallocr.o)
_printf_common                                    c:/program files (x86)/atollic/truestudio for arm 7.0.0/armtools/bin/../lib/gcc/arm-atollic-eabi/5.3.1/../../../../arm-atollic-eabi/lib/armv7-m\libc_nano.a(lib_a-nano-vfprintf_i.o)
_printf_float                                     c:/program files (x86)/atollic/truestudio for arm 7.0.0/armtools/bin/../lib/gcc/arm-atollic-eabi/5.3.1/../../../../arm-atollic-eabi/lib/armv7-m\libc_nano.a(lib_a-nano-vfprintf.o)
_printf_i                                         c:/program files (x86)/atollic/truestudio for arm 7.0.0/armtools/bin/../lib/gcc/arm-atollic-eabi/5.3.1/../../../../arm-atollic-eabi/lib/armv7-m\libc_nano.a(lib_a-nano-vfprintf_i.o)
                                                  c:/program files (x86)/atollic/truestudio for arm 7.0.0/armtools/bin/../lib/gcc/arm-atollic-eabi/5.3.1/../../../../arm-atollic-eabi/lib/armv7-m\libc_nano.a(lib_a-nano-vfprintf.o)
_printf_r                                         c:/program files (x86)/atollic/truestudio for arm 7.0.0/armtools/bin/../lib/gcc/arm-atollic-eabi/5.3.1/../../../../arm-atollic-eabi/lib/armv7-m\libc_nano.a(lib_a-printf.o)
_read                                             c:/program files (x86)/atollic/truestudio for arm 7.0.0/armtools/bin/../lib/gcc/arm-atollic-eabi/5.3.1/../../../../arm-atollic-eabi/lib/armv7-m\libnosys.a(read.o)
                                                  c:/program files (x86)/atollic/truestudio for arm 7.0.0/armtools/bin/../lib/gcc/arm-atollic-eabi/5.3.1/../../../../arm-atollic-eabi/lib/armv7-m\libc_nano.a(lib_a-readr.o)
_read_r                                           c:/program files (x86)/atollic/truestudio for arm 7.0.0/armtools/bin/../lib/gcc/arm-atollic-eabi/5.3.1/../../../../arm-atollic-eabi/lib/armv7-m\libc_nano.a(lib_a-readr.o)
                                                  c:/program files (x86)/atollic/truestudio for arm 7.0.0/armtools/bin/../lib/gcc/arm-atollic-eabi/5.3.1/../../../../arm-atollic-eabi/lib/armv7-m\libc_nano.a(lib_a-stdio.o)
_realloc_r                                        c:/program files (x86)/atollic/truestudio for arm 7.0.0/armtools/bin/../lib/gcc/arm-atollic-eabi/5.3.1/../../../../arm-atollic-eabi/lib/armv7-m\libc_nano.a(lib_a-nano-reallocr.o)
                                                  c:/program files (x86)/atollic/truestudio for arm 7.0.0/armtools/bin/../lib/gcc/arm-atollic-eabi/5.3.1/../../../../arm-atollic-eabi/lib/armv7-m\libc_nano.a(lib_a-fvwrite.o)
_reclaim_reent                                    c:/program files (x86)/atollic/truestudio for arm 7.0.0/armtools/bin/../lib/gcc/arm-atollic-eabi/5.3.1/../../../../arm-atollic-eabi/lib/armv7-m\libc_nano.a(lib_a-reent.o)
_sbrk                                             c:/program files (x86)/atollic/truestudio for arm 7.0.0/armtools/bin/../lib/gcc/arm-atollic-eabi/5.3.1/../../../../arm-atollic-eabi/lib/armv7-m\libnosys.a(sbrk.o)
                                                  c:/program files (x86)/atollic/truestudio for arm 7.0.0/armtools/bin/../lib/gcc/arm-atollic-eabi/5.3.1/../../../../arm-atollic-eabi/lib/armv7-m\libc_nano.a(lib_a-sbrkr.o)
_sbrk_r                                           c:/program files (x86)/atollic/truestudio for arm 7.0.0/armtools/bin/../lib/gcc/arm-atollic-eabi/5.3.1/../../../../arm-atollic-eabi/lib/armv7-m\libc_nano.a(lib_a-sbrkr.o)
                                                  c:/program files (x86)/atollic/truestudio for arm 7.0.0/armtools/bin/../lib/gcc/arm-atollic-eabi/5.3.1/../../../../arm-atollic-eabi/lib/armv7-m\libc_nano.a(lib_a-nano-mallocr.o)
_sbss                                             src\startup_stm32f10x_md.o
_sdata                                            src\startup_stm32f10x_md.o
_sidata                                           src\startup_stm32f10x_md.o
_vfiprintf_r                                      c:/program files (x86)/atollic/truestudio for arm 7.0.0/armtools/bin/../lib/gcc/arm-atollic-eabi/5.3.1/../../../../arm-atollic-eabi/lib/armv7-m\libc_nano.a(lib_a-nano-vfprintf.o)
_vfprintf_r                                       c:/program files (x86)/atollic/truestudio for arm 7.0.0/armtools/bin/../lib/gcc/arm-atollic-eabi/5.3.1/../../../../arm-atollic-eabi/lib/armv7-m\libc_nano.a(lib_a-nano-vfprintf.o)
                                                  c:/program files (x86)/atollic/truestudio for arm 7.0.0/armtools/bin/../lib/gcc/arm-atollic-eabi/5.3.1/../../../../arm-atollic-eabi/lib/armv7-m\libc_nano.a(lib_a-printf.o)
_write                                            c:/program files (x86)/atollic/truestudio for arm 7.0.0/armtools/bin/../lib/gcc/arm-atollic-eabi/5.3.1/../../../../arm-atollic-eabi/lib/armv7-m\libnosys.a(write.o)
                                                  c:/program files (x86)/atollic/truestudio for arm 7.0.0/armtools/bin/../lib/gcc/arm-atollic-eabi/5.3.1/../../../../arm-atollic-eabi/lib/armv7-m\libc_nano.a(lib_a-writer.o)
_write_r                                          c:/program files (x86)/atollic/truestudio for arm 7.0.0/armtools/bin/../lib/gcc/arm-atollic-eabi/5.3.1/../../../../arm-atollic-eabi/lib/armv7-m\libc_nano.a(lib_a-writer.o)
                                                  c:/program files (x86)/atollic/truestudio for arm 7.0.0/armtools/bin/../lib/gcc/arm-atollic-eabi/5.3.1/../../../../arm-atollic-eabi/lib/armv7-m\libc_nano.a(lib_a-stdio.o)
adct_bgs_choose_datalog                           Apps\src\ADCT_BGS_Bare_state.o
adct_bgs_choose_views                             Apps\src\ADCT_BGS_Bare_state.o
adct_bgs_enter_parameter                          Apps\src\ADCT_BGS_Bare_state.o
adct_bgs_main_state_table                         Apps\src\ADCT_BGS_Bare_state.o
adct_bgs_runstate_alarm                           Apps\src\ADCT_BGS_Bare_state.o
adct_bgs_runstate_idle                            Apps\src\ADCT_BGS_Bare_state.o
adct_bgs_view_datalog                             Apps\src\ADCT_BGS_Bare_state.o
avergearray                                       BSP\PhSensor\src\ADCT_PhSensor.o
avgValue                                          BSP\PhSensor\src\ADCT_PhSensor.o
bkupdata                                          BSP\RTC\src\ADCT_RTC.o
cleanup_glue                                      c:/program files (x86)/atollic/truestudio for arm 7.0.0/armtools/bin/../lib/gcc/arm-atollic-eabi/5.3.1/../../../../arm-atollic-eabi/lib/armv7-m\libc_nano.a(lib_a-reent.o)
count_ac                                          Apps\src\ADCT_BGS_State.o
count_dht22                                       Apps\src\ADCT_BGS_State.o
eMBClose                                          BSP\MODBUS\modbus\mb.o
eMBDisable                                        BSP\MODBUS\modbus\mb.o
eMBEnable                                         BSP\MODBUS\modbus\mb.o
                                                  Apps\src\ADCT_BGS_Modbus.o
eMBFuncReadCoils                                  BSP\MODBUS\modbus\functions\mbfunccoils.o
                                                  BSP\MODBUS\modbus\mb.o
eMBFuncReadDiscreteInputs                         BSP\MODBUS\modbus\functions\mbfuncdisc.o
                                                  BSP\MODBUS\modbus\mb.o
eMBFuncReadHoldingRegister                        BSP\MODBUS\modbus\functions\mbfuncholding.o
                                                  BSP\MODBUS\modbus\mb.o
eMBFuncReadInputRegister                          BSP\MODBUS\modbus\functions\mbfuncinput.o
                                                  BSP\MODBUS\modbus\mb.o
eMBFuncReadWriteMultipleHoldingRegister           BSP\MODBUS\modbus\functions\mbfuncholding.o
                                                  BSP\MODBUS\modbus\mb.o
eMBFuncReportSlaveID                              BSP\MODBUS\modbus\functions\mbfuncother.o
                                                  BSP\MODBUS\modbus\mb.o
eMBFuncWriteCoil                                  BSP\MODBUS\modbus\functions\mbfunccoils.o
                                                  BSP\MODBUS\modbus\mb.o
eMBFuncWriteHoldingRegister                       BSP\MODBUS\modbus\functions\mbfuncholding.o
                                                  BSP\MODBUS\modbus\mb.o
eMBFuncWriteMultipleCoils                         BSP\MODBUS\modbus\functions\mbfunccoils.o
                                                  BSP\MODBUS\modbus\mb.o
eMBFuncWriteMultipleHoldingRegister               BSP\MODBUS\modbus\functions\mbfuncholding.o
                                                  BSP\MODBUS\modbus\mb.o
eMBInit                                           BSP\MODBUS\modbus\mb.o
                                                  Apps\src\ADCT_BGS_Modbus.o
eMBPoll                                           BSP\MODBUS\modbus\mb.o
                                                  src\main.o
eMBRTUInit                                        BSP\MODBUS\modbus\rtu\mbrtu.o
                                                  BSP\MODBUS\modbus\mb.o
eMBRTUReceive                                     BSP\MODBUS\modbus\rtu\mbrtu.o
                                                  BSP\MODBUS\modbus\mb.o
eMBRTUSend                                        BSP\MODBUS\modbus\rtu\mbrtu.o
                                                  BSP\MODBUS\modbus\mb.o
eMBRTUStart                                       BSP\MODBUS\modbus\rtu\mbrtu.o
                                                  BSP\MODBUS\modbus\mb.o
eMBRTUStop                                        BSP\MODBUS\modbus\rtu\mbrtu.o
                                                  BSP\MODBUS\modbus\mb.o
eMBRegCoilsCB                                     Apps\src\ADCT_BGS_Modbus.o
                                                  BSP\MODBUS\modbus\functions\mbfunccoils.o
eMBRegDiscreteCB                                  Apps\src\ADCT_BGS_Modbus.o
                                                  BSP\MODBUS\modbus\functions\mbfuncdisc.o
eMBRegHoldingCB                                   Apps\src\ADCT_BGS_Modbus.o
                                                  BSP\MODBUS\modbus\functions\mbfuncholding.o
eMBRegInputCB                                     Apps\src\ADCT_BGS_Modbus.o
                                                  BSP\MODBUS\modbus\functions\mbfuncinput.o
eMBRegisterCB                                     BSP\MODBUS\modbus\mb.o
eMBSetSlaveID                                     BSP\MODBUS\modbus\functions\mbfuncother.o
end                                               c:/program files (x86)/atollic/truestudio for arm 7.0.0/armtools/bin/../lib/gcc/arm-atollic-eabi/5.3.1/../../../../arm-atollic-eabi/lib/armv7-m\libnosys.a(sbrk.o)
errno                                             c:/program files (x86)/atollic/truestudio for arm 7.0.0/armtools/bin/../lib/gcc/arm-atollic-eabi/5.3.1/../../../../arm-atollic-eabi/lib/armv7-m\libc_nano.a(lib_a-reent.o)
                                                  c:/program files (x86)/atollic/truestudio for arm 7.0.0/armtools/bin/../lib/gcc/arm-atollic-eabi/5.3.1/../../../../arm-atollic-eabi/lib/armv7-m\libnosys.a(write.o)
                                                  c:/program files (x86)/atollic/truestudio for arm 7.0.0/armtools/bin/../lib/gcc/arm-atollic-eabi/5.3.1/../../../../arm-atollic-eabi/lib/armv7-m\libnosys.a(read.o)
                                                  c:/program files (x86)/atollic/truestudio for arm 7.0.0/armtools/bin/../lib/gcc/arm-atollic-eabi/5.3.1/../../../../arm-atollic-eabi/lib/armv7-m\libnosys.a(lseek.o)
                                                  c:/program files (x86)/atollic/truestudio for arm 7.0.0/armtools/bin/../lib/gcc/arm-atollic-eabi/5.3.1/../../../../arm-atollic-eabi/lib/armv7-m\libnosys.a(isatty.o)
                                                  c:/program files (x86)/atollic/truestudio for arm 7.0.0/armtools/bin/../lib/gcc/arm-atollic-eabi/5.3.1/../../../../arm-atollic-eabi/lib/armv7-m\libnosys.a(fstat.o)
                                                  c:/program files (x86)/atollic/truestudio for arm 7.0.0/armtools/bin/../lib/gcc/arm-atollic-eabi/5.3.1/../../../../arm-atollic-eabi/lib/armv7-m\libnosys.a(close.o)
                                                  c:/program files (x86)/atollic/truestudio for arm 7.0.0/armtools/bin/../lib/gcc/arm-atollic-eabi/5.3.1/../../../../arm-atollic-eabi/lib/armv7-m\libc_nano.a(lib_a-isattyr.o)
                                                  c:/program files (x86)/atollic/truestudio for arm 7.0.0/armtools/bin/../lib/gcc/arm-atollic-eabi/5.3.1/../../../../arm-atollic-eabi/lib/armv7-m\libc_nano.a(lib_a-fstatr.o)
                                                  c:/program files (x86)/atollic/truestudio for arm 7.0.0/armtools/bin/../lib/gcc/arm-atollic-eabi/5.3.1/../../../../arm-atollic-eabi/lib/armv7-m\libc_nano.a(lib_a-readr.o)
                                                  c:/program files (x86)/atollic/truestudio for arm 7.0.0/armtools/bin/../lib/gcc/arm-atollic-eabi/5.3.1/../../../../arm-atollic-eabi/lib/armv7-m\libc_nano.a(lib_a-lseekr.o)
                                                  c:/program files (x86)/atollic/truestudio for arm 7.0.0/armtools/bin/../lib/gcc/arm-atollic-eabi/5.3.1/../../../../arm-atollic-eabi/lib/armv7-m\libc_nano.a(lib_a-closer.o)
                                                  c:/program files (x86)/atollic/truestudio for arm 7.0.0/armtools/bin/../lib/gcc/arm-atollic-eabi/5.3.1/../../../../arm-atollic-eabi/lib/armv7-m\libc_nano.a(lib_a-writer.o)
                                                  c:/program files (x86)/atollic/truestudio for arm 7.0.0/armtools/bin/../lib/gcc/arm-atollic-eabi/5.3.1/../../../../arm-atollic-eabi/lib/armv7-m\libc_nano.a(lib_a-sbrkr.o)
fflush                                            c:/program files (x86)/atollic/truestudio for arm 7.0.0/armtools/bin/../lib/gcc/arm-atollic-eabi/5.3.1/../../../../arm-atollic-eabi/lib/armv7-m\libc_nano.a(lib_a-fflush.o)
free                                              c:/program files (x86)/atollic/truestudio for arm 7.0.0/armtools/bin/../lib/gcc/arm-atollic-eabi/5.3.1/../../../../arm-atollic-eabi/lib/armv7-m\libc_nano.a(lib_a-malloc.o)
                                                  BSP\delay\src\ADCT_BGS_FPT_Delay.o
g_ADCT_BGS_Current_RTC                            Apps\src\ADCT_BGS_State.o
                                                  src\main.o
                                                  Apps\src\ADCT_BGS_Modbus.o
g_ADCT_BGS_StateOutput                            Apps\src\ADCT_BGS_State.o
                                                  Apps\src\ADCT_BGS_System.o
g_ADCT_BGS_TimerManager                           Apps\src\ADCT_BGS_State.o
                                                  Apps\src\ADCT_BGS_System.o
                                                  Apps\src\ADCT_BGS_Modbus.o
g_ASW_Task_flag                                   ASW_Task\src\ADCT_BGS_BSW_Task.o
                                                  src\main.o
                                                  Apps\src\ADCT_BGS_State.o
g_pfnVectors                                      src\startup_stm32f10x_md.o
idx_u8                                            BSP\PhSensor\src\ADCT_PhSensor.o
iprintf                                           c:/program files (x86)/atollic/truestudio for arm 7.0.0/armtools/bin/../lib/gcc/arm-atollic-eabi/5.3.1/../../../../arm-atollic-eabi/lib/armv7-m\libc_nano.a(lib_a-printf.o)
main                                              src\main.o
                                                  src\startup_stm32f10x_md.o
malloc                                            c:/program files (x86)/atollic/truestudio for arm 7.0.0/armtools/bin/../lib/gcc/arm-atollic-eabi/5.3.1/../../../../arm-atollic-eabi/lib/armv7-m\libc_nano.a(lib_a-malloc.o)
                                                  BSP\delay\src\ADCT_BGS_FPT_Delay.o
                                                  BSP\BUTTON\src\tm_stm32_button.o
memchr                                            c:/program files (x86)/atollic/truestudio for arm 7.0.0/armtools/bin/../lib/gcc/arm-atollic-eabi/5.3.1/../../../../arm-atollic-eabi/lib/armv7-m\libc_nano.a(lib_a-memchr-stub.o)
                                                  c:/program files (x86)/atollic/truestudio for arm 7.0.0/armtools/bin/../lib/gcc/arm-atollic-eabi/5.3.1/../../../../arm-atollic-eabi/lib/armv7-m\libc_nano.a(lib_a-fvwrite.o)
                                                  c:/program files (x86)/atollic/truestudio for arm 7.0.0/armtools/bin/../lib/gcc/arm-atollic-eabi/5.3.1/../../../../arm-atollic-eabi/lib/armv7-m\libc_nano.a(lib_a-nano-vfprintf_i.o)
                                                  c:/program files (x86)/atollic/truestudio for arm 7.0.0/armtools/bin/../lib/gcc/arm-atollic-eabi/5.3.1/../../../../arm-atollic-eabi/lib/armv7-m\libc_nano.a(lib_a-nano-vfprintf.o)
memcpy                                            c:/program files (x86)/atollic/truestudio for arm 7.0.0/armtools/bin/../lib/gcc/arm-atollic-eabi/5.3.1/../../../../arm-atollic-eabi/lib/armv7-m\libc_nano.a(lib_a-memcpy-stub.o)
                                                  c:/program files (x86)/atollic/truestudio for arm 7.0.0/armtools/bin/../lib/gcc/arm-atollic-eabi/5.3.1/../../../../arm-atollic-eabi/lib/armv7-m\libc_nano.a(lib_a-nano-reallocr.o)
                                                  c:/program files (x86)/atollic/truestudio for arm 7.0.0/armtools/bin/../lib/gcc/arm-atollic-eabi/5.3.1/../../../../arm-atollic-eabi/lib/armv7-m\libc_nano.a(lib_a-fvwrite.o)
                                                  BSP\MODBUS\modbus\functions\mbfuncother.o
memmove                                           c:/program files (x86)/atollic/truestudio for arm 7.0.0/armtools/bin/../lib/gcc/arm-atollic-eabi/5.3.1/../../../../arm-atollic-eabi/lib/armv7-m\libc_nano.a(lib_a-memmove.o)
                                                  c:/program files (x86)/atollic/truestudio for arm 7.0.0/armtools/bin/../lib/gcc/arm-atollic-eabi/5.3.1/../../../../arm-atollic-eabi/lib/armv7-m\libc_nano.a(lib_a-fvwrite.o)
memset                                            c:/program files (x86)/atollic/truestudio for arm 7.0.0/armtools/bin/../lib/gcc/arm-atollic-eabi/5.3.1/../../../../arm-atollic-eabi/lib/armv7-m\libc_nano.a(lib_a-memset.o)
                                                  c:/program files (x86)/atollic/truestudio for arm 7.0.0/armtools/bin/../lib/gcc/arm-atollic-eabi/5.3.1/../../../../arm-atollic-eabi/lib/armv7-m\libc_nano.a(lib_a-findfp.o)
                                                  BSP\AM2302\src\ADCT_DHT22_exti.o
                                                  BSP\AM2302\src\ADCT_DHT22.o
printf                                            c:/program files (x86)/atollic/truestudio for arm 7.0.0/armtools/bin/../lib/gcc/arm-atollic-eabi/5.3.1/../../../../arm-atollic-eabi/lib/armv7-m\libc_nano.a(lib_a-printf.o)
                                                  BSP\PZEM004T\src\fifo.o
prveMBError2Exception                             BSP\MODBUS\modbus\functions\mbutils.o
                                                  BSP\MODBUS\modbus\functions\mbfuncinput.o
                                                  BSP\MODBUS\modbus\functions\mbfuncholding.o
                                                  BSP\MODBUS\modbus\functions\mbfuncdisc.o
                                                  BSP\MODBUS\modbus\functions\mbfunccoils.o
pxMBFrameCBByteReceived                           BSP\MODBUS\modbus\mb.o
                                                  BSP\MODBUS\port\portserial.o
pxMBFrameCBReceiveFSMCur                          BSP\MODBUS\modbus\mb.o
pxMBFrameCBTransmitFSMCur                         BSP\MODBUS\modbus\mb.o
pxMBFrameCBTransmitterEmpty                       BSP\MODBUS\modbus\mb.o
                                                  BSP\MODBUS\port\portserial.o
pxMBPortCBTimerExpired                            BSP\MODBUS\modbus\mb.o
                                                  BSP\MODBUS\port\porttimer.o
s_DateStructVar                                   BSP\RTC\src\ADCT_RTC.o
s_TimeStructVar                                   BSP\RTC\src\ADCT_RTC.o
strlen                                            c:/program files (x86)/atollic/truestudio for arm 7.0.0/armtools/bin/../lib/gcc/arm-atollic-eabi/5.3.1/../../../../arm-atollic-eabi/lib/armv7-m\libc_nano.a(lib_a-strlen.o)
                                                  BSP\PZEM004T\src\PZEM004T.o
temp                                              BSP\PhSensor\src\ADCT_PhSensor.o
temp_setting                                      Apps\src\ADCT_BGS_Modbus.o
ucRTUBuf                                          BSP\MODBUS\modbus\rtu\mbrtu.o
ui8flag_set_time                                  src\main.o
usMBCRC16                                         BSP\MODBUS\modbus\rtu\mbcrc.o
                                                  BSP\MODBUS\modbus\rtu\mbrtu.o
vExtiAddCb                                        BSP\AM2302\src\ADCT_DHT22_exti.o
                                                  BSP\AM2302\src\ADCT_DHT22.o
vExtiChangeState                                  BSP\AM2302\src\ADCT_DHT22_exti.o
vExtiHandleInt                                    BSP\AM2302\src\ADCT_DHT22_exti.o
vExtiInit                                         BSP\AM2302\src\ADCT_DHT22_exti.o
                                                  BSP\AM2302\src\ADCT_DHT22.o
vExtiStart                                        BSP\AM2302\src\ADCT_DHT22_exti.o
                                                  BSP\AM2302\src\ADCT_DHT22.o
vExtiStop                                         BSP\AM2302\src\ADCT_DHT22_exti.o
vMBPortSerialEnable                               BSP\MODBUS\port\portserial.o
                                                  BSP\MODBUS\modbus\rtu\mbrtu.o
vMBPortTimersDisable                              BSP\MODBUS\port\porttimer.o
                                                  BSP\MODBUS\modbus\rtu\mbrtu.o
vMBPortTimersEnable                               BSP\MODBUS\port\porttimer.o
                                                  BSP\MODBUS\modbus\rtu\mbrtu.o
vfiprintf                                         c:/program files (x86)/atollic/truestudio for arm 7.0.0/armtools/bin/../lib/gcc/arm-atollic-eabi/5.3.1/../../../../arm-atollic-eabi/lib/armv7-m\libc_nano.a(lib_a-nano-vfprintf.o)
vfprintf                                          c:/program files (x86)/atollic/truestudio for arm 7.0.0/armtools/bin/../lib/gcc/arm-atollic-eabi/5.3.1/../../../../arm-atollic-eabi/lib/armv7-m\libc_nano.a(lib_a-nano-vfprintf.o)
xMBPortEventGet                                   BSP\MODBUS\port\portevent.o
                                                  BSP\MODBUS\modbus\mb.o
xMBPortEventInit                                  BSP\MODBUS\port\portevent.o
                                                  BSP\MODBUS\modbus\mb.o
xMBPortEventPost                                  BSP\MODBUS\port\portevent.o
                                                  BSP\MODBUS\modbus\rtu\mbrtu.o
                                                  BSP\MODBUS\modbus\mb.o
xMBPortSerialGetByte                              BSP\MODBUS\port\portserial.o
                                                  BSP\MODBUS\modbus\rtu\mbrtu.o
xMBPortSerialInit                                 BSP\MODBUS\port\portserial.o
                                                  BSP\MODBUS\modbus\rtu\mbrtu.o
xMBPortSerialPutByte                              BSP\MODBUS\port\portserial.o
                                                  BSP\MODBUS\modbus\rtu\mbrtu.o
xMBPortTimersInit                                 BSP\MODBUS\port\porttimer.o
                                                  BSP\MODBUS\modbus\rtu\mbrtu.o
xMBRTUReceiveFSM                                  BSP\MODBUS\modbus\rtu\mbrtu.o
                                                  BSP\MODBUS\modbus\mb.o
xMBRTUTimerT35Expired                             BSP\MODBUS\modbus\rtu\mbrtu.o
                                                  BSP\MODBUS\modbus\mb.o
xMBRTUTransmitFSM                                 BSP\MODBUS\modbus\rtu\mbrtu.o
                                                  BSP\MODBUS\modbus\mb.o
xMBUtilGetBits                                    BSP\MODBUS\modbus\functions\mbutils.o
xMBUtilSetBits                                    BSP\MODBUS\modbus\functions\mbutils.o
